
Projeto_Final.elf:     file format elf32-avr

Sections:
Idx Name          Size      VMA       LMA       File off  Algn
  0 .data         0000009c  00800100  0000194a  000019de  2**0
                  CONTENTS, ALLOC, LOAD, DATA
  1 .text         0000194a  00000000  00000000  00000094  2**1
                  CONTENTS, ALLOC, LOAD, READONLY, CODE
  2 .bss          00000040  0080019c  0080019c  00001a7a  2**0
                  ALLOC
  3 .comment      00000011  00000000  00000000  00001a7a  2**0
                  CONTENTS, READONLY
  4 .note.gnu.avr.deviceinfo 00000040  00000000  00000000  00001a8c  2**2
                  CONTENTS, READONLY

Disassembly of section .text:

00000000 <__vectors>:
       0:	0c 94 40 00 	jmp	0x80	; 0x80 <__ctors_end>
       4:	0c 94 5d 00 	jmp	0xba	; 0xba <__bad_interrupt>
       8:	0c 94 5d 00 	jmp	0xba	; 0xba <__bad_interrupt>
       c:	0c 94 5d 00 	jmp	0xba	; 0xba <__bad_interrupt>
      10:	0c 94 5d 00 	jmp	0xba	; 0xba <__bad_interrupt>
      14:	0c 94 5d 00 	jmp	0xba	; 0xba <__bad_interrupt>
      18:	0c 94 5d 00 	jmp	0xba	; 0xba <__bad_interrupt>
      1c:	0c 94 5d 00 	jmp	0xba	; 0xba <__bad_interrupt>
      20:	0c 94 5d 00 	jmp	0xba	; 0xba <__bad_interrupt>
      24:	0c 94 5d 00 	jmp	0xba	; 0xba <__bad_interrupt>
      28:	0c 94 5d 00 	jmp	0xba	; 0xba <__bad_interrupt>
      2c:	0c 94 5d 00 	jmp	0xba	; 0xba <__bad_interrupt>
      30:	0c 94 5d 00 	jmp	0xba	; 0xba <__bad_interrupt>
      34:	0c 94 6d 01 	jmp	0x2da	; 0x2da <__vector_13>
      38:	0c 94 5d 00 	jmp	0xba	; 0xba <__bad_interrupt>
      3c:	0c 94 5d 00 	jmp	0xba	; 0xba <__bad_interrupt>
      40:	0c 94 5d 00 	jmp	0xba	; 0xba <__bad_interrupt>
      44:	0c 94 5d 00 	jmp	0xba	; 0xba <__bad_interrupt>
      48:	0c 94 db 01 	jmp	0x3b6	; 0x3b6 <__vector_18>
      4c:	0c 94 5d 00 	jmp	0xba	; 0xba <__bad_interrupt>
      50:	0c 94 5d 00 	jmp	0xba	; 0xba <__bad_interrupt>
      54:	0c 94 5d 00 	jmp	0xba	; 0xba <__bad_interrupt>
      58:	0c 94 5d 00 	jmp	0xba	; 0xba <__bad_interrupt>
      5c:	0c 94 5d 00 	jmp	0xba	; 0xba <__bad_interrupt>
      60:	0c 94 5d 00 	jmp	0xba	; 0xba <__bad_interrupt>
      64:	0c 94 5d 00 	jmp	0xba	; 0xba <__bad_interrupt>
      68:	dd 02       	muls	r29, r29
      6a:	e3 02       	muls	r30, r19
      6c:	f2 02       	muls	r31, r18
      6e:	fa 02       	muls	r31, r26
      70:	02 03       	mulsu	r16, r18
      72:	0a 03       	fmul	r16, r18
      74:	22 03       	mulsu	r18, r18
      76:	2e 03       	fmul	r18, r22
      78:	16 03       	mulsu	r17, r22
      7a:	40 03       	mulsu	r20, r16
      7c:	3b 03       	fmul	r19, r19
      7e:	47 03       	mulsu	r20, r23

00000080 <__ctors_end>:
      80:	11 24       	eor	r1, r1
      82:	1f be       	out	0x3f, r1	; 63
      84:	cf ef       	ldi	r28, 0xFF	; 255
      86:	d8 e0       	ldi	r29, 0x08	; 8
      88:	de bf       	out	0x3e, r29	; 62
      8a:	cd bf       	out	0x3d, r28	; 61

0000008c <__do_copy_data>:
      8c:	11 e0       	ldi	r17, 0x01	; 1
      8e:	a0 e0       	ldi	r26, 0x00	; 0
      90:	b1 e0       	ldi	r27, 0x01	; 1
      92:	ea e4       	ldi	r30, 0x4A	; 74
      94:	f9 e1       	ldi	r31, 0x19	; 25
      96:	02 c0       	rjmp	.+4      	; 0x9c <__do_copy_data+0x10>
      98:	05 90       	lpm	r0, Z+
      9a:	0d 92       	st	X+, r0
      9c:	ac 39       	cpi	r26, 0x9C	; 156
      9e:	b1 07       	cpc	r27, r17
      a0:	d9 f7       	brne	.-10     	; 0x98 <__do_copy_data+0xc>

000000a2 <__do_clear_bss>:
      a2:	21 e0       	ldi	r18, 0x01	; 1
      a4:	ac e9       	ldi	r26, 0x9C	; 156
      a6:	b1 e0       	ldi	r27, 0x01	; 1
      a8:	01 c0       	rjmp	.+2      	; 0xac <.do_clear_bss_start>

000000aa <.do_clear_bss_loop>:
      aa:	1d 92       	st	X+, r1

000000ac <.do_clear_bss_start>:
      ac:	ac 3d       	cpi	r26, 0xDC	; 220
      ae:	b2 07       	cpc	r27, r18
      b0:	e1 f7       	brne	.-8      	; 0xaa <.do_clear_bss_loop>
      b2:	0e 94 11 07 	call	0xe22	; 0xe22 <main>
      b6:	0c 94 a3 0c 	jmp	0x1946	; 0x1946 <_exit>

000000ba <__bad_interrupt>:
      ba:	0c 94 00 00 	jmp	0	; 0x0 <__vectors>

000000be <lcd_data>:
      be:	2c 9a       	sbi	0x05, 4	; 5
      c0:	2d 9a       	sbi	0x05, 5	; 5
      c2:	ef e8       	ldi	r30, 0x8F	; 143
      c4:	f1 e0       	ldi	r31, 0x01	; 1
      c6:	31 97       	sbiw	r30, 0x01	; 1
      c8:	f1 f7       	brne	.-4      	; 0xc6 <lcd_data+0x8>
      ca:	00 c0       	rjmp	.+0      	; 0xcc <lcd_data+0xe>
      cc:	00 00       	nop
      ce:	9b b1       	in	r25, 0x0b	; 11
      d0:	98 2b       	or	r25, r24
      d2:	9b b9       	out	0x0b, r25	; 11
      d4:	f5 e3       	ldi	r31, 0x35	; 53
      d6:	fa 95       	dec	r31
      d8:	f1 f7       	brne	.-4      	; 0xd6 <lcd_data+0x18>
      da:	00 00       	nop
      dc:	2d 98       	cbi	0x05, 5	; 5
      de:	ef e3       	ldi	r30, 0x3F	; 63
      e0:	ff e1       	ldi	r31, 0x1F	; 31
      e2:	31 97       	sbiw	r30, 0x01	; 1
      e4:	f1 f7       	brne	.-4      	; 0xe2 <lcd_data+0x24>
      e6:	00 c0       	rjmp	.+0      	; 0xe8 <lcd_data+0x2a>
      e8:	00 00       	nop
      ea:	9b b1       	in	r25, 0x0b	; 11
      ec:	80 95       	com	r24
      ee:	89 23       	and	r24, r25
      f0:	8b b9       	out	0x0b, r24	; 11
      f2:	08 95       	ret

000000f4 <lcdData>:
      f4:	cf 93       	push	r28
      f6:	c8 2f       	mov	r28, r24
      f8:	80 7f       	andi	r24, 0xF0	; 240
      fa:	0e 94 5f 00 	call	0xbe	; 0xbe <lcd_data>
      fe:	85 e3       	ldi	r24, 0x35	; 53
     100:	8a 95       	dec	r24
     102:	f1 f7       	brne	.-4      	; 0x100 <lcdData+0xc>
     104:	00 00       	nop
     106:	8c 2f       	mov	r24, r28
     108:	82 95       	swap	r24
     10a:	80 7f       	andi	r24, 0xF0	; 240
     10c:	0e 94 5f 00 	call	0xbe	; 0xbe <lcd_data>
     110:	85 e3       	ldi	r24, 0x35	; 53
     112:	8a 95       	dec	r24
     114:	f1 f7       	brne	.-4      	; 0x112 <lcdData+0x1e>
     116:	00 00       	nop
     118:	cf 91       	pop	r28
     11a:	08 95       	ret

0000011c <lcd_print>:
     11c:	cf 93       	push	r28
     11e:	df 93       	push	r29
     120:	ec 01       	movw	r28, r24
     122:	89 91       	ld	r24, Y+
     124:	88 23       	and	r24, r24
     126:	19 f0       	breq	.+6      	; 0x12e <lcd_print+0x12>
     128:	0e 94 7a 00 	call	0xf4	; 0xf4 <lcdData>
     12c:	fa cf       	rjmp	.-12     	; 0x122 <lcd_print+0x6>
     12e:	df 91       	pop	r29
     130:	cf 91       	pop	r28
     132:	08 95       	ret

00000134 <lcd_command>:
     134:	2c 98       	cbi	0x05, 4	; 5
     136:	2d 9a       	sbi	0x05, 5	; 5
     138:	ef e8       	ldi	r30, 0x8F	; 143
     13a:	f1 e0       	ldi	r31, 0x01	; 1
     13c:	31 97       	sbiw	r30, 0x01	; 1
     13e:	f1 f7       	brne	.-4      	; 0x13c <lcd_command+0x8>
     140:	00 c0       	rjmp	.+0      	; 0x142 <lcd_command+0xe>
     142:	00 00       	nop
     144:	9b b1       	in	r25, 0x0b	; 11
     146:	98 2b       	or	r25, r24
     148:	9b b9       	out	0x0b, r25	; 11
     14a:	f5 e3       	ldi	r31, 0x35	; 53
     14c:	fa 95       	dec	r31
     14e:	f1 f7       	brne	.-4      	; 0x14c <lcd_command+0x18>
     150:	00 00       	nop
     152:	2d 98       	cbi	0x05, 5	; 5
     154:	ef e3       	ldi	r30, 0x3F	; 63
     156:	ff e1       	ldi	r31, 0x1F	; 31
     158:	31 97       	sbiw	r30, 0x01	; 1
     15a:	f1 f7       	brne	.-4      	; 0x158 <lcd_command+0x24>
     15c:	00 c0       	rjmp	.+0      	; 0x15e <lcd_command+0x2a>
     15e:	00 00       	nop
     160:	9b b1       	in	r25, 0x0b	; 11
     162:	80 95       	com	r24
     164:	89 23       	and	r24, r25
     166:	8b b9       	out	0x0b, r24	; 11
     168:	08 95       	ret

0000016a <lcdCommand>:
     16a:	cf 93       	push	r28
     16c:	c8 2f       	mov	r28, r24
     16e:	80 7f       	andi	r24, 0xF0	; 240
     170:	0e 94 9a 00 	call	0x134	; 0x134 <lcd_command>
     174:	85 e3       	ldi	r24, 0x35	; 53
     176:	8a 95       	dec	r24
     178:	f1 f7       	brne	.-4      	; 0x176 <lcdCommand+0xc>
     17a:	00 00       	nop
     17c:	8c 2f       	mov	r24, r28
     17e:	82 95       	swap	r24
     180:	80 7f       	andi	r24, 0xF0	; 240
     182:	0e 94 9a 00 	call	0x134	; 0x134 <lcd_command>
     186:	85 e3       	ldi	r24, 0x35	; 53
     188:	8a 95       	dec	r24
     18a:	f1 f7       	brne	.-4      	; 0x188 <lcdCommand+0x1e>
     18c:	00 00       	nop
     18e:	cf 91       	pop	r28
     190:	08 95       	ret

00000192 <lcd_gotoxy>:
     192:	cf 93       	push	r28
     194:	df 93       	push	r29
     196:	00 d0       	rcall	.+0      	; 0x198 <lcd_gotoxy+0x6>
     198:	00 d0       	rcall	.+0      	; 0x19a <lcd_gotoxy+0x8>
     19a:	cd b7       	in	r28, 0x3d	; 61
     19c:	de b7       	in	r29, 0x3e	; 62
     19e:	90 e8       	ldi	r25, 0x80	; 128
     1a0:	99 83       	std	Y+1, r25	; 0x01
     1a2:	90 ec       	ldi	r25, 0xC0	; 192
     1a4:	9a 83       	std	Y+2, r25	; 0x02
     1a6:	94 e9       	ldi	r25, 0x94	; 148
     1a8:	9b 83       	std	Y+3, r25	; 0x03
     1aa:	94 ed       	ldi	r25, 0xD4	; 212
     1ac:	9c 83       	std	Y+4, r25	; 0x04
     1ae:	81 50       	subi	r24, 0x01	; 1
     1b0:	fe 01       	movw	r30, r28
     1b2:	e6 0f       	add	r30, r22
     1b4:	f1 1d       	adc	r31, r1
     1b6:	90 81       	ld	r25, Z
     1b8:	89 0f       	add	r24, r25
     1ba:	0e 94 b5 00 	call	0x16a	; 0x16a <lcdCommand>
     1be:	8f ec       	ldi	r24, 0xCF	; 207
     1c0:	97 e0       	ldi	r25, 0x07	; 7
     1c2:	01 97       	sbiw	r24, 0x01	; 1
     1c4:	f1 f7       	brne	.-4      	; 0x1c2 <lcd_gotoxy+0x30>
     1c6:	00 c0       	rjmp	.+0      	; 0x1c8 <lcd_gotoxy+0x36>
     1c8:	00 00       	nop
     1ca:	0f 90       	pop	r0
     1cc:	0f 90       	pop	r0
     1ce:	0f 90       	pop	r0
     1d0:	0f 90       	pop	r0
     1d2:	df 91       	pop	r29
     1d4:	cf 91       	pop	r28
     1d6:	08 95       	ret

000001d8 <lcd_init>:
     1d8:	84 b1       	in	r24, 0x04	; 4
     1da:	80 63       	ori	r24, 0x30	; 48
     1dc:	84 b9       	out	0x04, r24	; 4
     1de:	82 e0       	ldi	r24, 0x02	; 2
     1e0:	0e 94 b5 00 	call	0x16a	; 0x16a <lcdCommand>
     1e4:	81 e0       	ldi	r24, 0x01	; 1
     1e6:	0e 94 b5 00 	call	0x16a	; 0x16a <lcdCommand>
     1ea:	88 e2       	ldi	r24, 0x28	; 40
     1ec:	0e 94 b5 00 	call	0x16a	; 0x16a <lcdCommand>
     1f0:	8f e0       	ldi	r24, 0x0F	; 15
     1f2:	0e 94 b5 00 	call	0x16a	; 0x16a <lcdCommand>
     1f6:	80 e8       	ldi	r24, 0x80	; 128
     1f8:	0e 94 b5 00 	call	0x16a	; 0x16a <lcdCommand>
     1fc:	61 e0       	ldi	r22, 0x01	; 1
     1fe:	81 e0       	ldi	r24, 0x01	; 1
     200:	0e 94 c9 00 	call	0x192	; 0x192 <lcd_gotoxy>
     204:	8f ef       	ldi	r24, 0xFF	; 255
     206:	0e 94 7a 00 	call	0xf4	; 0xf4 <lcdData>
     20a:	61 e0       	ldi	r22, 0x01	; 1
     20c:	82 e0       	ldi	r24, 0x02	; 2
     20e:	0e 94 c9 00 	call	0x192	; 0x192 <lcd_gotoxy>
     212:	8f ef       	ldi	r24, 0xFF	; 255
     214:	0e 94 7a 00 	call	0xf4	; 0xf4 <lcdData>
     218:	61 e0       	ldi	r22, 0x01	; 1
     21a:	82 e1       	ldi	r24, 0x12	; 18
     21c:	0e 94 c9 00 	call	0x192	; 0x192 <lcd_gotoxy>
     220:	8f ef       	ldi	r24, 0xFF	; 255
     222:	0e 94 7a 00 	call	0xf4	; 0xf4 <lcdData>
     226:	61 e0       	ldi	r22, 0x01	; 1
     228:	83 e1       	ldi	r24, 0x13	; 19
     22a:	0e 94 c9 00 	call	0x192	; 0x192 <lcd_gotoxy>
     22e:	8f ef       	ldi	r24, 0xFF	; 255
     230:	0e 94 7a 00 	call	0xf4	; 0xf4 <lcdData>
     234:	61 e0       	ldi	r22, 0x01	; 1
     236:	84 e1       	ldi	r24, 0x14	; 20
     238:	0e 94 c9 00 	call	0x192	; 0x192 <lcd_gotoxy>
     23c:	8f ef       	ldi	r24, 0xFF	; 255
     23e:	0e 94 7a 00 	call	0xf4	; 0xf4 <lcdData>
     242:	2f ef       	ldi	r18, 0xFF	; 255
     244:	83 ec       	ldi	r24, 0xC3	; 195
     246:	99 e0       	ldi	r25, 0x09	; 9
     248:	21 50       	subi	r18, 0x01	; 1
     24a:	80 40       	sbci	r24, 0x00	; 0
     24c:	90 40       	sbci	r25, 0x00	; 0
     24e:	e1 f7       	brne	.-8      	; 0x248 <lcd_init+0x70>
     250:	00 c0       	rjmp	.+0      	; 0x252 <lcd_init+0x7a>
     252:	00 00       	nop
     254:	08 95       	ret

00000256 <init_usart>:
     256:	10 92 c5 00 	sts	0x00C5, r1
     25a:	8f ec       	ldi	r24, 0xCF	; 207
     25c:	80 93 c4 00 	sts	0x00C4, r24
     260:	86 e0       	ldi	r24, 0x06	; 6
     262:	80 93 c2 00 	sts	0x00C2, r24
     266:	82 e0       	ldi	r24, 0x02	; 2
     268:	80 93 c0 00 	sts	0x00C0, r24
     26c:	88 e9       	ldi	r24, 0x98	; 152
     26e:	80 93 c1 00 	sts	0x00C1, r24
     272:	08 95       	ret

00000274 <Send_Data>:
     274:	90 91 c0 00 	lds	r25, 0x00C0
     278:	95 ff       	sbrs	r25, 5
     27a:	fc cf       	rjmp	.-8      	; 0x274 <Send_Data>
     27c:	80 93 c6 00 	sts	0x00C6, r24
     280:	08 95       	ret

00000282 <Receive_Data>:
     282:	80 91 c0 00 	lds	r24, 0x00C0
     286:	87 ff       	sbrs	r24, 7
     288:	fc cf       	rjmp	.-8      	; 0x282 <Receive_Data>
     28a:	80 91 c6 00 	lds	r24, 0x00C6
     28e:	08 95       	ret

00000290 <init_adc>:
     290:	ec e7       	ldi	r30, 0x7C	; 124
     292:	f0 e0       	ldi	r31, 0x00	; 0
     294:	80 81       	ld	r24, Z
     296:	80 64       	ori	r24, 0x40	; 64
     298:	80 83       	st	Z, r24
     29a:	ee e7       	ldi	r30, 0x7E	; 126
     29c:	f0 e0       	ldi	r31, 0x00	; 0
     29e:	80 81       	ld	r24, Z
     2a0:	81 60       	ori	r24, 0x01	; 1
     2a2:	80 83       	st	Z, r24
     2a4:	ea e7       	ldi	r30, 0x7A	; 122
     2a6:	f0 e0       	ldi	r31, 0x00	; 0
     2a8:	80 81       	ld	r24, Z
     2aa:	87 68       	ori	r24, 0x87	; 135
     2ac:	80 83       	st	Z, r24
     2ae:	08 95       	ret

000002b0 <read_adc>:
     2b0:	90 91 7c 00 	lds	r25, 0x007C
     2b4:	8f 70       	andi	r24, 0x0F	; 15
     2b6:	90 7f       	andi	r25, 0xF0	; 240
     2b8:	89 2b       	or	r24, r25
     2ba:	80 93 7c 00 	sts	0x007C, r24
     2be:	80 91 7a 00 	lds	r24, 0x007A
     2c2:	80 64       	ori	r24, 0x40	; 64
     2c4:	80 93 7a 00 	sts	0x007A, r24
     2c8:	80 91 7a 00 	lds	r24, 0x007A
     2cc:	86 fd       	sbrc	r24, 6
     2ce:	fc cf       	rjmp	.-8      	; 0x2c8 <read_adc+0x18>
     2d0:	80 91 78 00 	lds	r24, 0x0078
     2d4:	90 91 79 00 	lds	r25, 0x0079
     2d8:	08 95       	ret

000002da <__vector_13>:
     2da:	1f 92       	push	r1
     2dc:	0f 92       	push	r0
     2de:	0f b6       	in	r0, 0x3f	; 63
     2e0:	0f 92       	push	r0
     2e2:	11 24       	eor	r1, r1
     2e4:	8f 93       	push	r24
     2e6:	9f 93       	push	r25
     2e8:	80 e8       	ldi	r24, 0x80	; 128
     2ea:	91 ec       	ldi	r25, 0xC1	; 193
     2ec:	90 93 85 00 	sts	0x0085, r25
     2f0:	80 93 84 00 	sts	0x0084, r24
     2f4:	80 91 c4 01 	lds	r24, 0x01C4
     2f8:	90 91 c5 01 	lds	r25, 0x01C5
     2fc:	89 2b       	or	r24, r25
     2fe:	49 f0       	breq	.+18     	; 0x312 <__vector_13+0x38>
     300:	80 91 c4 01 	lds	r24, 0x01C4
     304:	90 91 c5 01 	lds	r25, 0x01C5
     308:	01 97       	sbiw	r24, 0x01	; 1
     30a:	90 93 c5 01 	sts	0x01C5, r25
     30e:	80 93 c4 01 	sts	0x01C4, r24
     312:	80 91 c6 01 	lds	r24, 0x01C6
     316:	90 91 c7 01 	lds	r25, 0x01C7
     31a:	89 2b       	or	r24, r25
     31c:	49 f0       	breq	.+18     	; 0x330 <__vector_13+0x56>
     31e:	80 91 c6 01 	lds	r24, 0x01C6
     322:	90 91 c7 01 	lds	r25, 0x01C7
     326:	01 97       	sbiw	r24, 0x01	; 1
     328:	90 93 c7 01 	sts	0x01C7, r25
     32c:	80 93 c6 01 	sts	0x01C6, r24
     330:	80 91 b0 01 	lds	r24, 0x01B0
     334:	90 91 b1 01 	lds	r25, 0x01B1
     338:	89 2b       	or	r24, r25
     33a:	49 f0       	breq	.+18     	; 0x34e <__vector_13+0x74>
     33c:	80 91 b0 01 	lds	r24, 0x01B0
     340:	90 91 b1 01 	lds	r25, 0x01B1
     344:	01 97       	sbiw	r24, 0x01	; 1
     346:	90 93 b1 01 	sts	0x01B1, r25
     34a:	80 93 b0 01 	sts	0x01B0, r24
     34e:	80 91 ca 01 	lds	r24, 0x01CA
     352:	90 91 cb 01 	lds	r25, 0x01CB
     356:	89 2b       	or	r24, r25
     358:	49 f0       	breq	.+18     	; 0x36c <__vector_13+0x92>
     35a:	80 91 ca 01 	lds	r24, 0x01CA
     35e:	90 91 cb 01 	lds	r25, 0x01CB
     362:	01 97       	sbiw	r24, 0x01	; 1
     364:	90 93 cb 01 	sts	0x01CB, r25
     368:	80 93 ca 01 	sts	0x01CA, r24
     36c:	80 91 b2 01 	lds	r24, 0x01B2
     370:	90 91 b3 01 	lds	r25, 0x01B3
     374:	89 2b       	or	r24, r25
     376:	49 f0       	breq	.+18     	; 0x38a <__vector_13+0xb0>
     378:	80 91 b2 01 	lds	r24, 0x01B2
     37c:	90 91 b3 01 	lds	r25, 0x01B3
     380:	01 97       	sbiw	r24, 0x01	; 1
     382:	90 93 b3 01 	sts	0x01B3, r25
     386:	80 93 b2 01 	sts	0x01B2, r24
     38a:	80 91 ce 01 	lds	r24, 0x01CE
     38e:	90 91 cf 01 	lds	r25, 0x01CF
     392:	89 2b       	or	r24, r25
     394:	49 f0       	breq	.+18     	; 0x3a8 <__vector_13+0xce>
     396:	80 91 ce 01 	lds	r24, 0x01CE
     39a:	90 91 cf 01 	lds	r25, 0x01CF
     39e:	01 97       	sbiw	r24, 0x01	; 1
     3a0:	90 93 cf 01 	sts	0x01CF, r25
     3a4:	80 93 ce 01 	sts	0x01CE, r24
     3a8:	9f 91       	pop	r25
     3aa:	8f 91       	pop	r24
     3ac:	0f 90       	pop	r0
     3ae:	0f be       	out	0x3f, r0	; 63
     3b0:	0f 90       	pop	r0
     3b2:	1f 90       	pop	r1
     3b4:	18 95       	reti

000003b6 <__vector_18>:
     3b6:	1f 92       	push	r1
     3b8:	0f 92       	push	r0
     3ba:	0f b6       	in	r0, 0x3f	; 63
     3bc:	0f 92       	push	r0
     3be:	11 24       	eor	r1, r1
     3c0:	8f 93       	push	r24
     3c2:	9f 93       	push	r25
     3c4:	80 91 c6 00 	lds	r24, 0x00C6
     3c8:	9a e6       	ldi	r25, 0x6A	; 106
     3ca:	98 0f       	add	r25, r24
     3cc:	92 30       	cpi	r25, 0x02	; 2
     3ce:	18 f4       	brcc	.+6      	; 0x3d6 <__vector_18+0x20>
     3d0:	80 93 d2 01 	sts	0x01D2, r24
     3d4:	66 c0       	rjmp	.+204    	; 0x4a2 <__vector_18+0xec>
     3d6:	93 ec       	ldi	r25, 0xC3	; 195
     3d8:	98 0f       	add	r25, r24
     3da:	95 30       	cpi	r25, 0x05	; 5
     3dc:	d0 f4       	brcc	.+52     	; 0x412 <__vector_18+0x5c>
     3de:	8d 33       	cpi	r24, 0x3D	; 61
     3e0:	29 f4       	brne	.+10     	; 0x3ec <__vector_18+0x36>
     3e2:	8a ea       	ldi	r24, 0xAA	; 170
     3e4:	80 93 d3 01 	sts	0x01D3, r24
     3e8:	80 ea       	ldi	r24, 0xA0	; 160
     3ea:	59 c0       	rjmp	.+178    	; 0x49e <__vector_18+0xe8>
     3ec:	8e 33       	cpi	r24, 0x3E	; 62
     3ee:	29 f4       	brne	.+10     	; 0x3fa <__vector_18+0x44>
     3f0:	89 eb       	ldi	r24, 0xB9	; 185
     3f2:	80 93 d3 01 	sts	0x01D3, r24
     3f6:	8f ea       	ldi	r24, 0xAF	; 175
     3f8:	52 c0       	rjmp	.+164    	; 0x49e <__vector_18+0xe8>
     3fa:	8f 33       	cpi	r24, 0x3F	; 63
     3fc:	09 f4       	brne	.+2      	; 0x400 <__vector_18+0x4a>
     3fe:	40 c0       	rjmp	.+128    	; 0x480 <__vector_18+0xca>
     400:	80 34       	cpi	r24, 0x40	; 64
     402:	29 f4       	brne	.+10     	; 0x40e <__vector_18+0x58>
     404:	8c ed       	ldi	r24, 0xDC	; 220
     406:	80 93 d3 01 	sts	0x01D3, r24
     40a:	82 ed       	ldi	r24, 0xD2	; 210
     40c:	48 c0       	rjmp	.+144    	; 0x49e <__vector_18+0xe8>
     40e:	80 ef       	ldi	r24, 0xF0	; 240
     410:	43 c0       	rjmp	.+134    	; 0x498 <__vector_18+0xe2>
     412:	9f ef       	ldi	r25, 0xFF	; 255
     414:	98 0f       	add	r25, r24
     416:	94 30       	cpi	r25, 0x04	; 4
     418:	80 f4       	brcc	.+32     	; 0x43a <__vector_18+0x84>
     41a:	81 30       	cpi	r24, 0x01	; 1
     41c:	11 f4       	brne	.+4      	; 0x422 <__vector_18+0x6c>
     41e:	89 e1       	ldi	r24, 0x19	; 25
     420:	09 c0       	rjmp	.+18     	; 0x434 <__vector_18+0x7e>
     422:	82 30       	cpi	r24, 0x02	; 2
     424:	11 f4       	brne	.+4      	; 0x42a <__vector_18+0x74>
     426:	85 e1       	ldi	r24, 0x15	; 21
     428:	05 c0       	rjmp	.+10     	; 0x434 <__vector_18+0x7e>
     42a:	83 30       	cpi	r24, 0x03	; 3
     42c:	11 f4       	brne	.+4      	; 0x432 <__vector_18+0x7c>
     42e:	84 e1       	ldi	r24, 0x14	; 20
     430:	01 c0       	rjmp	.+2      	; 0x434 <__vector_18+0x7e>
     432:	8e e1       	ldi	r24, 0x1E	; 30
     434:	80 93 b9 01 	sts	0x01B9, r24
     438:	34 c0       	rjmp	.+104    	; 0x4a2 <__vector_18+0xec>
     43a:	85 30       	cpi	r24, 0x05	; 5
     43c:	21 f0       	breq	.+8      	; 0x446 <__vector_18+0x90>
     43e:	95 ef       	ldi	r25, 0xF5	; 245
     440:	98 0f       	add	r25, r24
     442:	94 30       	cpi	r25, 0x04	; 4
     444:	10 f4       	brcc	.+4      	; 0x44a <__vector_18+0x94>
     446:	8d e1       	ldi	r24, 0x1D	; 29
     448:	f5 cf       	rjmp	.-22     	; 0x434 <__vector_18+0x7e>
     44a:	98 ed       	ldi	r25, 0xD8	; 216
     44c:	98 0f       	add	r25, r24
     44e:	92 30       	cpi	r25, 0x02	; 2
     450:	18 f4       	brcc	.+6      	; 0x458 <__vector_18+0xa2>
     452:	80 93 b7 01 	sts	0x01B7, r24
     456:	25 c0       	rjmp	.+74     	; 0x4a2 <__vector_18+0xec>
     458:	9d ec       	ldi	r25, 0xCD	; 205
     45a:	98 0f       	add	r25, r24
     45c:	95 30       	cpi	r25, 0x05	; 5
     45e:	08 f5       	brcc	.+66     	; 0x4a2 <__vector_18+0xec>
     460:	83 33       	cpi	r24, 0x33	; 51
     462:	29 f4       	brne	.+10     	; 0x46e <__vector_18+0xb8>
     464:	80 ea       	ldi	r24, 0xA0	; 160
     466:	80 93 d3 01 	sts	0x01D3, r24
     46a:	86 e9       	ldi	r24, 0x96	; 150
     46c:	18 c0       	rjmp	.+48     	; 0x49e <__vector_18+0xe8>
     46e:	84 33       	cpi	r24, 0x34	; 52
     470:	29 f4       	brne	.+10     	; 0x47c <__vector_18+0xc6>
     472:	84 eb       	ldi	r24, 0xB4	; 180
     474:	80 93 d3 01 	sts	0x01D3, r24
     478:	8a ea       	ldi	r24, 0xAA	; 170
     47a:	11 c0       	rjmp	.+34     	; 0x49e <__vector_18+0xe8>
     47c:	85 33       	cpi	r24, 0x35	; 53
     47e:	29 f4       	brne	.+10     	; 0x48a <__vector_18+0xd4>
     480:	88 ec       	ldi	r24, 0xC8	; 200
     482:	80 93 d3 01 	sts	0x01D3, r24
     486:	8e eb       	ldi	r24, 0xBE	; 190
     488:	0a c0       	rjmp	.+20     	; 0x49e <__vector_18+0xe8>
     48a:	86 33       	cpi	r24, 0x36	; 54
     48c:	21 f4       	brne	.+8      	; 0x496 <__vector_18+0xe0>
     48e:	82 ed       	ldi	r24, 0xD2	; 210
     490:	80 93 d3 01 	sts	0x01D3, r24
     494:	04 c0       	rjmp	.+8      	; 0x49e <__vector_18+0xe8>
     496:	8c ed       	ldi	r24, 0xDC	; 220
     498:	80 93 d3 01 	sts	0x01D3, r24
     49c:	86 ee       	ldi	r24, 0xE6	; 230
     49e:	80 93 cd 01 	sts	0x01CD, r24
     4a2:	80 ed       	ldi	r24, 0xD0	; 208
     4a4:	97 e0       	ldi	r25, 0x07	; 7
     4a6:	90 93 c7 01 	sts	0x01C7, r25
     4aa:	80 93 c6 01 	sts	0x01C6, r24
     4ae:	9f 91       	pop	r25
     4b0:	8f 91       	pop	r24
     4b2:	0f 90       	pop	r0
     4b4:	0f be       	out	0x3f, r0	; 63
     4b6:	0f 90       	pop	r0
     4b8:	1f 90       	pop	r1
     4ba:	18 95       	reti

000004bc <Init>:
     4bc:	e1 eb       	ldi	r30, 0xB1	; 177
     4be:	f0 e0       	ldi	r31, 0x00	; 0
     4c0:	10 82       	st	Z, r1
     4c2:	87 b3       	in	r24, 0x17	; 23
     4c4:	87 60       	ori	r24, 0x07	; 7
     4c6:	87 bb       	out	0x17, r24	; 23
     4c8:	83 ea       	ldi	r24, 0xA3	; 163
     4ca:	80 93 b0 00 	sts	0x00B0, r24
     4ce:	80 81       	ld	r24, Z
     4d0:	88 60       	ori	r24, 0x08	; 8
     4d2:	80 83       	st	Z, r24
     4d4:	10 92 b2 00 	sts	0x00B2, r1
     4d8:	8f e7       	ldi	r24, 0x7F	; 127
     4da:	80 93 b3 00 	sts	0x00B3, r24
     4de:	80 93 b4 00 	sts	0x00B4, r24
     4e2:	10 92 70 00 	sts	0x0070, r1
     4e6:	81 e0       	ldi	r24, 0x01	; 1
     4e8:	80 83       	st	Z, r24
     4ea:	e1 e8       	ldi	r30, 0x81	; 129
     4ec:	f0 e0       	ldi	r31, 0x00	; 0
     4ee:	10 82       	st	Z, r1
     4f0:	97 e2       	ldi	r25, 0x27	; 39
     4f2:	96 bb       	out	0x16, r25	; 22
     4f4:	10 92 80 00 	sts	0x0080, r1
     4f8:	20 e8       	ldi	r18, 0x80	; 128
     4fa:	31 ec       	ldi	r19, 0xC1	; 193
     4fc:	30 93 85 00 	sts	0x0085, r19
     500:	20 93 84 00 	sts	0x0084, r18
     504:	80 93 6f 00 	sts	0x006F, r24
     508:	80 83       	st	Z, r24
     50a:	78 94       	sei
     50c:	97 b1       	in	r25, 0x07	; 7
     50e:	91 7c       	andi	r25, 0xC1	; 193
     510:	97 b9       	out	0x07, r25	; 7
     512:	98 b1       	in	r25, 0x08	; 8
     514:	9e 63       	ori	r25, 0x3E	; 62
     516:	98 b9       	out	0x08, r25	; 8
     518:	52 9a       	sbi	0x0a, 2	; 10
     51a:	20 9a       	sbi	0x04, 0	; 4
     51c:	94 b1       	in	r25, 0x04	; 4
     51e:	9e 60       	ori	r25, 0x0E	; 14
     520:	94 b9       	out	0x04, r25	; 4
     522:	9f ef       	ldi	r25, 0xFF	; 255
     524:	9a b9       	out	0x0a, r25	; 10
     526:	2b 9a       	sbi	0x05, 3	; 5
     528:	5b 9a       	sbi	0x0b, 3	; 11
     52a:	98 ec       	ldi	r25, 0xC8	; 200
     52c:	90 93 d3 01 	sts	0x01D3, r25
     530:	9e eb       	ldi	r25, 0xBE	; 190
     532:	90 93 cd 01 	sts	0x01CD, r25
     536:	9f e0       	ldi	r25, 0x0F	; 15
     538:	90 93 b6 01 	sts	0x01B6, r25
     53c:	9e e1       	ldi	r25, 0x1E	; 30
     53e:	90 93 d4 01 	sts	0x01D4, r25
     542:	9c e3       	ldi	r25, 0x3C	; 60
     544:	90 93 b4 01 	sts	0x01B4, r25
     548:	80 93 bc 01 	sts	0x01BC, r24
     54c:	87 e4       	ldi	r24, 0x47	; 71
     54e:	0c 94 3a 01 	jmp	0x274	; 0x274 <Send_Data>

00000552 <Sensores>:
     552:	35 9b       	sbis	0x06, 5	; 6
     554:	04 c0       	rjmp	.+8      	; 0x55e <Sensores+0xc>
     556:	81 e0       	ldi	r24, 0x01	; 1
     558:	80 93 c3 01 	sts	0x01C3, r24
     55c:	02 c0       	rjmp	.+4      	; 0x562 <Sensores+0x10>
     55e:	10 92 c3 01 	sts	0x01C3, r1
     562:	34 9b       	sbis	0x06, 4	; 6
     564:	04 c0       	rjmp	.+8      	; 0x56e <Sensores+0x1c>
     566:	81 e0       	ldi	r24, 0x01	; 1
     568:	80 93 c2 01 	sts	0x01C2, r24
     56c:	02 c0       	rjmp	.+4      	; 0x572 <Sensores+0x20>
     56e:	10 92 c2 01 	sts	0x01C2, r1
     572:	33 9b       	sbis	0x06, 3	; 6
     574:	04 c0       	rjmp	.+8      	; 0x57e <Sensores+0x2c>
     576:	81 e0       	ldi	r24, 0x01	; 1
     578:	80 93 c1 01 	sts	0x01C1, r24
     57c:	02 c0       	rjmp	.+4      	; 0x582 <Sensores+0x30>
     57e:	10 92 c1 01 	sts	0x01C1, r1
     582:	32 9b       	sbis	0x06, 2	; 6
     584:	04 c0       	rjmp	.+8      	; 0x58e <Sensores+0x3c>
     586:	81 e0       	ldi	r24, 0x01	; 1
     588:	80 93 c0 01 	sts	0x01C0, r24
     58c:	02 c0       	rjmp	.+4      	; 0x592 <Sensores+0x40>
     58e:	10 92 c0 01 	sts	0x01C0, r1
     592:	31 9b       	sbis	0x06, 1	; 6
     594:	04 c0       	rjmp	.+8      	; 0x59e <Sensores+0x4c>
     596:	81 e0       	ldi	r24, 0x01	; 1
     598:	80 93 bf 01 	sts	0x01BF, r24
     59c:	08 95       	ret
     59e:	10 92 bf 01 	sts	0x01BF, r1
     5a2:	08 95       	ret

000005a4 <Motores>:
     5a4:	90 e0       	ldi	r25, 0x00	; 0
     5a6:	fc 01       	movw	r30, r24
     5a8:	74 97       	sbiw	r30, 0x14	; 20
     5aa:	ec 30       	cpi	r30, 0x0C	; 12
     5ac:	f1 05       	cpc	r31, r1
     5ae:	08 f0       	brcs	.+2      	; 0x5b2 <Motores+0xe>
     5b0:	77 c0       	rjmp	.+238    	; 0x6a0 <Motores+0xfc>
     5b2:	ec 5c       	subi	r30, 0xCC	; 204
     5b4:	ff 4f       	sbci	r31, 0xFF	; 255
     5b6:	0c 94 85 08 	jmp	0x110a	; 0x110a <__tablejump2__>
     5ba:	85 b1       	in	r24, 0x05	; 5
     5bc:	89 7f       	andi	r24, 0xF9	; 249
     5be:	85 b9       	out	0x05, r24	; 5
     5c0:	80 91 d3 01 	lds	r24, 0x01D3
     5c4:	08 c0       	rjmp	.+16     	; 0x5d6 <Motores+0x32>
     5c6:	85 b1       	in	r24, 0x05	; 5
     5c8:	89 7f       	andi	r24, 0xF9	; 249
     5ca:	85 b9       	out	0x05, r24	; 5
     5cc:	80 91 d3 01 	lds	r24, 0x01D3
     5d0:	90 91 cd 01 	lds	r25, 0x01CD
     5d4:	89 1b       	sub	r24, r25
     5d6:	80 93 b3 00 	sts	0x00B3, r24
     5da:	80 91 d3 01 	lds	r24, 0x01D3
     5de:	80 93 b4 00 	sts	0x00B4, r24
     5e2:	08 95       	ret
     5e4:	85 b1       	in	r24, 0x05	; 5
     5e6:	89 7f       	andi	r24, 0xF9	; 249
     5e8:	85 b9       	out	0x05, r24	; 5
     5ea:	80 91 d3 01 	lds	r24, 0x01D3
     5ee:	90 91 b6 01 	lds	r25, 0x01B6
     5f2:	f0 cf       	rjmp	.-32     	; 0x5d4 <Motores+0x30>
     5f4:	85 b1       	in	r24, 0x05	; 5
     5f6:	89 7f       	andi	r24, 0xF9	; 249
     5f8:	85 b9       	out	0x05, r24	; 5
     5fa:	80 91 d3 01 	lds	r24, 0x01D3
     5fe:	90 91 d4 01 	lds	r25, 0x01D4
     602:	e8 cf       	rjmp	.-48     	; 0x5d4 <Motores+0x30>
     604:	85 b1       	in	r24, 0x05	; 5
     606:	89 7f       	andi	r24, 0xF9	; 249
     608:	85 b9       	out	0x05, r24	; 5
     60a:	80 91 d3 01 	lds	r24, 0x01D3
     60e:	90 91 b4 01 	lds	r25, 0x01B4
     612:	e0 cf       	rjmp	.-64     	; 0x5d4 <Motores+0x30>
     614:	85 b1       	in	r24, 0x05	; 5
     616:	89 7f       	andi	r24, 0xF9	; 249
     618:	85 b9       	out	0x05, r24	; 5
     61a:	80 91 d3 01 	lds	r24, 0x01D3
     61e:	80 93 b3 00 	sts	0x00B3, r24
     622:	80 91 d3 01 	lds	r24, 0x01D3
     626:	90 91 cd 01 	lds	r25, 0x01CD
     62a:	23 c0       	rjmp	.+70     	; 0x672 <Motores+0xce>
     62c:	85 b1       	in	r24, 0x05	; 5
     62e:	89 7f       	andi	r24, 0xF9	; 249
     630:	85 b9       	out	0x05, r24	; 5
     632:	80 91 d3 01 	lds	r24, 0x01D3
     636:	80 93 b3 00 	sts	0x00B3, r24
     63a:	80 91 d3 01 	lds	r24, 0x01D3
     63e:	90 91 b6 01 	lds	r25, 0x01B6
     642:	17 c0       	rjmp	.+46     	; 0x672 <Motores+0xce>
     644:	85 b1       	in	r24, 0x05	; 5
     646:	89 7f       	andi	r24, 0xF9	; 249
     648:	85 b9       	out	0x05, r24	; 5
     64a:	80 91 d3 01 	lds	r24, 0x01D3
     64e:	80 93 b3 00 	sts	0x00B3, r24
     652:	80 91 d3 01 	lds	r24, 0x01D3
     656:	90 91 d4 01 	lds	r25, 0x01D4
     65a:	0b c0       	rjmp	.+22     	; 0x672 <Motores+0xce>
     65c:	85 b1       	in	r24, 0x05	; 5
     65e:	89 7f       	andi	r24, 0xF9	; 249
     660:	85 b9       	out	0x05, r24	; 5
     662:	80 91 d3 01 	lds	r24, 0x01D3
     666:	80 93 b3 00 	sts	0x00B3, r24
     66a:	80 91 d3 01 	lds	r24, 0x01D3
     66e:	90 91 b4 01 	lds	r25, 0x01B4
     672:	89 1b       	sub	r24, r25
     674:	b4 cf       	rjmp	.-152    	; 0x5de <Motores+0x3a>
     676:	10 92 b3 00 	sts	0x00B3, r1
     67a:	10 92 b4 00 	sts	0x00B4, r1
     67e:	0c c0       	rjmp	.+24     	; 0x698 <Motores+0xf4>
     680:	10 92 b3 00 	sts	0x00B3, r1
     684:	10 92 b4 00 	sts	0x00B4, r1
     688:	85 b1       	in	r24, 0x05	; 5
     68a:	89 7f       	andi	r24, 0xF9	; 249
     68c:	07 c0       	rjmp	.+14     	; 0x69c <Motores+0xf8>
     68e:	8f ef       	ldi	r24, 0xFF	; 255
     690:	80 93 b3 00 	sts	0x00B3, r24
     694:	80 93 b4 00 	sts	0x00B4, r24
     698:	85 b1       	in	r24, 0x05	; 5
     69a:	86 60       	ori	r24, 0x06	; 6
     69c:	85 b9       	out	0x05, r24	; 5
     69e:	08 95       	ret
     6a0:	85 b1       	in	r24, 0x05	; 5
     6a2:	89 7f       	andi	r24, 0xF9	; 249
     6a4:	85 b9       	out	0x05, r24	; 5
     6a6:	10 92 b3 00 	sts	0x00B3, r1
     6aa:	10 92 b4 00 	sts	0x00B4, r1
     6ae:	08 95       	ret

000006b0 <Calculo>:
     6b0:	50 91 cc 01 	lds	r21, 0x01CC
     6b4:	40 91 bf 01 	lds	r20, 0x01BF
     6b8:	30 91 c0 01 	lds	r19, 0x01C0
     6bc:	90 91 c1 01 	lds	r25, 0x01C1
     6c0:	80 91 c2 01 	lds	r24, 0x01C2
     6c4:	20 91 c3 01 	lds	r18, 0x01C3
     6c8:	51 11       	cpse	r21, r1
     6ca:	14 c0       	rjmp	.+40     	; 0x6f4 <Calculo+0x44>
     6cc:	44 23       	and	r20, r20
     6ce:	91 f0       	breq	.+36     	; 0x6f4 <Calculo+0x44>
     6d0:	33 23       	and	r19, r19
     6d2:	81 f0       	breq	.+32     	; 0x6f4 <Calculo+0x44>
     6d4:	99 23       	and	r25, r25
     6d6:	81 f0       	breq	.+32     	; 0x6f8 <Calculo+0x48>
     6d8:	88 23       	and	r24, r24
     6da:	61 f0       	breq	.+24     	; 0x6f4 <Calculo+0x44>
     6dc:	22 23       	and	r18, r18
     6de:	51 f0       	breq	.+20     	; 0x6f4 <Calculo+0x44>
     6e0:	88 eb       	ldi	r24, 0xB8	; 184
     6e2:	9b e0       	ldi	r25, 0x0B	; 11
     6e4:	90 93 b1 01 	sts	0x01B1, r25
     6e8:	80 93 b0 01 	sts	0x01B0, r24
     6ec:	81 e0       	ldi	r24, 0x01	; 1
     6ee:	80 93 cc 01 	sts	0x01CC, r24
     6f2:	08 95       	ret
     6f4:	91 11       	cpse	r25, r1
     6f6:	0a c0       	rjmp	.+20     	; 0x70c <Calculo+0x5c>
     6f8:	44 23       	and	r20, r20
     6fa:	41 f0       	breq	.+16     	; 0x70c <Calculo+0x5c>
     6fc:	33 23       	and	r19, r19
     6fe:	41 f0       	breq	.+16     	; 0x710 <Calculo+0x60>
     700:	88 23       	and	r24, r24
     702:	21 f0       	breq	.+8      	; 0x70c <Calculo+0x5c>
     704:	22 23       	and	r18, r18
     706:	11 f0       	breq	.+4      	; 0x70c <Calculo+0x5c>
     708:	84 e1       	ldi	r24, 0x14	; 20
     70a:	49 c0       	rjmp	.+146    	; 0x79e <Calculo+0xee>
     70c:	31 11       	cpse	r19, r1
     70e:	0a c0       	rjmp	.+20     	; 0x724 <Calculo+0x74>
     710:	44 23       	and	r20, r20
     712:	a1 f0       	breq	.+40     	; 0x73c <Calculo+0x8c>
     714:	99 23       	and	r25, r25
     716:	31 f0       	breq	.+12     	; 0x724 <Calculo+0x74>
     718:	88 23       	and	r24, r24
     71a:	21 f0       	breq	.+8      	; 0x724 <Calculo+0x74>
     71c:	22 23       	and	r18, r18
     71e:	11 f0       	breq	.+4      	; 0x724 <Calculo+0x74>
     720:	87 e1       	ldi	r24, 0x17	; 23
     722:	3d c0       	rjmp	.+122    	; 0x79e <Calculo+0xee>
     724:	41 11       	cpse	r20, r1
     726:	0a c0       	rjmp	.+20     	; 0x73c <Calculo+0x8c>
     728:	33 23       	and	r19, r19
     72a:	41 f0       	breq	.+16     	; 0x73c <Calculo+0x8c>
     72c:	99 23       	and	r25, r25
     72e:	31 f0       	breq	.+12     	; 0x73c <Calculo+0x8c>
     730:	88 23       	and	r24, r24
     732:	81 f0       	breq	.+32     	; 0x754 <Calculo+0xa4>
     734:	22 23       	and	r18, r18
     736:	11 f0       	breq	.+4      	; 0x73c <Calculo+0x8c>
     738:	85 e1       	ldi	r24, 0x15	; 21
     73a:	31 c0       	rjmp	.+98     	; 0x79e <Calculo+0xee>
     73c:	81 11       	cpse	r24, r1
     73e:	0a c0       	rjmp	.+20     	; 0x754 <Calculo+0xa4>
     740:	44 23       	and	r20, r20
     742:	41 f0       	breq	.+16     	; 0x754 <Calculo+0xa4>
     744:	33 23       	and	r19, r19
     746:	31 f0       	breq	.+12     	; 0x754 <Calculo+0xa4>
     748:	99 23       	and	r25, r25
     74a:	21 f0       	breq	.+8      	; 0x754 <Calculo+0xa4>
     74c:	22 23       	and	r18, r18
     74e:	21 f0       	breq	.+8      	; 0x758 <Calculo+0xa8>
     750:	8a e1       	ldi	r24, 0x1A	; 26
     752:	25 c0       	rjmp	.+74     	; 0x79e <Calculo+0xee>
     754:	21 11       	cpse	r18, r1
     756:	0a c0       	rjmp	.+20     	; 0x76c <Calculo+0xbc>
     758:	44 23       	and	r20, r20
     75a:	31 f1       	breq	.+76     	; 0x7a8 <Calculo+0xf8>
     75c:	33 23       	and	r19, r19
     75e:	59 f1       	breq	.+86     	; 0x7b6 <Calculo+0x106>
     760:	99 23       	and	r25, r25
     762:	71 f1       	breq	.+92     	; 0x7c0 <Calculo+0x110>
     764:	88 23       	and	r24, r24
     766:	d1 f0       	breq	.+52     	; 0x79c <Calculo+0xec>
     768:	89 e1       	ldi	r24, 0x19	; 25
     76a:	19 c0       	rjmp	.+50     	; 0x79e <Calculo+0xee>
     76c:	99 23       	and	r25, r25
     76e:	51 f0       	breq	.+20     	; 0x784 <Calculo+0xd4>
     770:	41 11       	cpse	r20, r1
     772:	2b c0       	rjmp	.+86     	; 0x7ca <Calculo+0x11a>
     774:	31 11       	cpse	r19, r1
     776:	29 c0       	rjmp	.+82     	; 0x7ca <Calculo+0x11a>
     778:	88 23       	and	r24, r24
     77a:	29 f1       	breq	.+74     	; 0x7c6 <Calculo+0x116>
     77c:	22 23       	and	r18, r18
     77e:	29 f1       	breq	.+74     	; 0x7ca <Calculo+0x11a>
     780:	88 e1       	ldi	r24, 0x18	; 24
     782:	0d c0       	rjmp	.+26     	; 0x79e <Calculo+0xee>
     784:	44 23       	and	r20, r20
     786:	91 f0       	breq	.+36     	; 0x7ac <Calculo+0xfc>
     788:	31 11       	cpse	r19, r1
     78a:	04 c0       	rjmp	.+8      	; 0x794 <Calculo+0xe4>
     78c:	88 23       	and	r24, r24
     78e:	e9 f0       	breq	.+58     	; 0x7ca <Calculo+0x11a>
     790:	86 e1       	ldi	r24, 0x16	; 22
     792:	05 c0       	rjmp	.+10     	; 0x79e <Calculo+0xee>
     794:	81 11       	cpse	r24, r1
     796:	19 c0       	rjmp	.+50     	; 0x7ca <Calculo+0x11a>
     798:	8c e1       	ldi	r24, 0x1C	; 28
     79a:	01 c0       	rjmp	.+2      	; 0x79e <Calculo+0xee>
     79c:	8b e1       	ldi	r24, 0x1B	; 27
     79e:	0e 94 d2 02 	call	0x5a4	; 0x5a4 <Motores>
     7a2:	10 92 cc 01 	sts	0x01CC, r1
     7a6:	08 95       	ret
     7a8:	91 11       	cpse	r25, r1
     7aa:	e4 cf       	rjmp	.-56     	; 0x774 <Calculo+0xc4>
     7ac:	31 11       	cpse	r19, r1
     7ae:	0d c0       	rjmp	.+26     	; 0x7ca <Calculo+0x11a>
     7b0:	22 23       	and	r18, r18
     7b2:	59 f0       	breq	.+22     	; 0x7ca <Calculo+0x11a>
     7b4:	c1 cf       	rjmp	.-126    	; 0x738 <Calculo+0x88>
     7b6:	91 11       	cpse	r25, r1
     7b8:	08 c0       	rjmp	.+16     	; 0x7ca <Calculo+0x11a>
     7ba:	81 11       	cpse	r24, r1
     7bc:	06 c0       	rjmp	.+12     	; 0x7ca <Calculo+0x11a>
     7be:	d4 cf       	rjmp	.-88     	; 0x768 <Calculo+0xb8>
     7c0:	88 23       	and	r24, r24
     7c2:	91 f2       	breq	.-92     	; 0x768 <Calculo+0xb8>
     7c4:	08 95       	ret
     7c6:	99 23       	and	r25, r25
     7c8:	99 f3       	breq	.-26     	; 0x7b0 <Calculo+0x100>
     7ca:	08 95       	ret

000007cc <Modo_Run>:
     7cc:	18 b8       	out	0x08, r1	; 8
     7ce:	28 98       	cbi	0x05, 0	; 5
     7d0:	5a 9a       	sbi	0x0b, 2	; 11
     7d2:	08 95       	ret

000007d4 <Modo_Stop>:
     7d4:	8d e1       	ldi	r24, 0x1D	; 29
     7d6:	0e 94 d2 02 	call	0x5a4	; 0x5a4 <Motores>
     7da:	95 b1       	in	r25, 0x05	; 5
     7dc:	81 e0       	ldi	r24, 0x01	; 1
     7de:	89 27       	eor	r24, r25
     7e0:	85 b9       	out	0x05, r24	; 5
     7e2:	5a 98       	cbi	0x0b, 2	; 11
     7e4:	8e e7       	ldi	r24, 0x7E	; 126
     7e6:	0e 94 3a 01 	call	0x274	; 0x274 <Send_Data>
     7ea:	8f e3       	ldi	r24, 0x3F	; 63
     7ec:	9f e1       	ldi	r25, 0x1F	; 31
     7ee:	01 97       	sbiw	r24, 0x01	; 1
     7f0:	f1 f7       	brne	.-4      	; 0x7ee <Modo_Stop+0x1a>
     7f2:	00 c0       	rjmp	.+0      	; 0x7f4 <Modo_Stop+0x20>
     7f4:	00 00       	nop
     7f6:	08 95       	ret

000007f8 <Modo_Perdido>:
     7f8:	8d e1       	ldi	r24, 0x1D	; 29
     7fa:	0e 94 d2 02 	call	0x5a4	; 0x5a4 <Motores>
     7fe:	5a 98       	cbi	0x0b, 2	; 11
     800:	81 e0       	ldi	r24, 0x01	; 1
     802:	0e 94 b5 00 	call	0x16a	; 0x16a <lcdCommand>
     806:	61 e0       	ldi	r22, 0x01	; 1
     808:	81 e0       	ldi	r24, 0x01	; 1
     80a:	0e 94 c9 00 	call	0x192	; 0x192 <lcd_gotoxy>
     80e:	8e e0       	ldi	r24, 0x0E	; 14
     810:	91 e0       	ldi	r25, 0x01	; 1
     812:	9f 93       	push	r25
     814:	8f 93       	push	r24
     816:	0e 94 b5 09 	call	0x136a	; 0x136a <printf>
     81a:	62 e0       	ldi	r22, 0x02	; 2
     81c:	81 e0       	ldi	r24, 0x01	; 1
     81e:	0e 94 c9 00 	call	0x192	; 0x192 <lcd_gotoxy>
     822:	8b e1       	ldi	r24, 0x1B	; 27
     824:	91 e0       	ldi	r25, 0x01	; 1
     826:	9f 93       	push	r25
     828:	8f 93       	push	r24
     82a:	0e 94 b5 09 	call	0x136a	; 0x136a <printf>
     82e:	81 e0       	ldi	r24, 0x01	; 1
     830:	80 93 d0 01 	sts	0x01D0, r24
     834:	84 e6       	ldi	r24, 0x64	; 100
     836:	90 e0       	ldi	r25, 0x00	; 0
     838:	90 93 cb 01 	sts	0x01CB, r25
     83c:	80 93 ca 01 	sts	0x01CA, r24
     840:	8a e7       	ldi	r24, 0x7A	; 122
     842:	0e 94 3a 01 	call	0x274	; 0x274 <Send_Data>
     846:	8f e3       	ldi	r24, 0x3F	; 63
     848:	9f e1       	ldi	r25, 0x1F	; 31
     84a:	01 97       	sbiw	r24, 0x01	; 1
     84c:	f1 f7       	brne	.-4      	; 0x84a <Modo_Perdido+0x52>
     84e:	00 c0       	rjmp	.+0      	; 0x850 <Modo_Perdido+0x58>
     850:	00 00       	nop
     852:	0f 90       	pop	r0
     854:	0f 90       	pop	r0
     856:	0f 90       	pop	r0
     858:	0f 90       	pop	r0
     85a:	08 95       	ret

0000085c <Incializa_Manual>:
     85c:	cf 93       	push	r28
     85e:	df 93       	push	r29
     860:	81 e0       	ldi	r24, 0x01	; 1
     862:	80 93 d1 01 	sts	0x01D1, r24
     866:	5a 9a       	sbi	0x0b, 2	; 11
     868:	28 98       	cbi	0x05, 0	; 5
     86a:	0e 94 b5 00 	call	0x16a	; 0x16a <lcdCommand>
     86e:	2f ef       	ldi	r18, 0xFF	; 255
     870:	89 ef       	ldi	r24, 0xF9	; 249
     872:	90 e0       	ldi	r25, 0x00	; 0
     874:	21 50       	subi	r18, 0x01	; 1
     876:	80 40       	sbci	r24, 0x00	; 0
     878:	90 40       	sbci	r25, 0x00	; 0
     87a:	e1 f7       	brne	.-8      	; 0x874 <Incializa_Manual+0x18>
     87c:	00 c0       	rjmp	.+0      	; 0x87e <Incializa_Manual+0x22>
     87e:	00 00       	nop
     880:	61 e0       	ldi	r22, 0x01	; 1
     882:	81 e0       	ldi	r24, 0x01	; 1
     884:	0e 94 c9 00 	call	0x192	; 0x192 <lcd_gotoxy>
     888:	cc e2       	ldi	r28, 0x2C	; 44
     88a:	d1 e0       	ldi	r29, 0x01	; 1
     88c:	df 93       	push	r29
     88e:	cf 93       	push	r28
     890:	0e 94 b5 09 	call	0x136a	; 0x136a <printf>
     894:	62 e0       	ldi	r22, 0x02	; 2
     896:	85 e0       	ldi	r24, 0x05	; 5
     898:	0e 94 c9 00 	call	0x192	; 0x192 <lcd_gotoxy>
     89c:	82 e9       	ldi	r24, 0x92	; 146
     89e:	91 e0       	ldi	r25, 0x01	; 1
     8a0:	9f 93       	push	r25
     8a2:	8f 93       	push	r24
     8a4:	0e 94 b5 09 	call	0x136a	; 0x136a <printf>
     8a8:	63 e0       	ldi	r22, 0x03	; 3
     8aa:	81 e0       	ldi	r24, 0x01	; 1
     8ac:	0e 94 c9 00 	call	0x192	; 0x192 <lcd_gotoxy>
     8b0:	df 93       	push	r29
     8b2:	cf 93       	push	r28
     8b4:	0e 94 b5 09 	call	0x136a	; 0x136a <printf>
     8b8:	0f 90       	pop	r0
     8ba:	0f 90       	pop	r0
     8bc:	0f 90       	pop	r0
     8be:	0f 90       	pop	r0
     8c0:	0f 90       	pop	r0
     8c2:	0f 90       	pop	r0
     8c4:	df 91       	pop	r29
     8c6:	cf 91       	pop	r28
     8c8:	08 95       	ret

000008ca <Conta_Volta>:
     8ca:	90 91 bf 01 	lds	r25, 0x01BF
     8ce:	91 11       	cpse	r25, r1
     8d0:	12 c0       	rjmp	.+36     	; 0x8f6 <Conta_Volta+0x2c>
     8d2:	80 91 c0 01 	lds	r24, 0x01C0
     8d6:	81 11       	cpse	r24, r1
     8d8:	0e c0       	rjmp	.+28     	; 0x8f6 <Conta_Volta+0x2c>
     8da:	80 91 c1 01 	lds	r24, 0x01C1
     8de:	81 11       	cpse	r24, r1
     8e0:	0a c0       	rjmp	.+20     	; 0x8f6 <Conta_Volta+0x2c>
     8e2:	80 91 c2 01 	lds	r24, 0x01C2
     8e6:	81 11       	cpse	r24, r1
     8e8:	06 c0       	rjmp	.+12     	; 0x8f6 <Conta_Volta+0x2c>
     8ea:	80 91 c3 01 	lds	r24, 0x01C3
     8ee:	81 11       	cpse	r24, r1
     8f0:	02 c0       	rjmp	.+4      	; 0x8f6 <Conta_Volta+0x2c>
     8f2:	81 e0       	ldi	r24, 0x01	; 1
     8f4:	0b c0       	rjmp	.+22     	; 0x90c <__stack+0xd>
     8f6:	80 91 b8 01 	lds	r24, 0x01B8
     8fa:	81 30       	cpi	r24, 0x01	; 1
     8fc:	51 f4       	brne	.+20     	; 0x912 <__stack+0x13>
     8fe:	91 11       	cpse	r25, r1
     900:	04 c0       	rjmp	.+8      	; 0x90a <__stack+0xb>
     902:	80 91 c3 01 	lds	r24, 0x01C3
     906:	88 23       	and	r24, r24
     908:	b1 f0       	breq	.+44     	; 0x936 <__stack+0x37>
     90a:	82 e0       	ldi	r24, 0x02	; 2
     90c:	80 93 b8 01 	sts	0x01B8, r24
     910:	08 95       	ret
     912:	82 30       	cpi	r24, 0x02	; 2
     914:	81 f4       	brne	.+32     	; 0x936 <__stack+0x37>
     916:	86 e4       	ldi	r24, 0x46	; 70
     918:	0e 94 3a 01 	call	0x274	; 0x274 <Send_Data>
     91c:	10 92 b8 01 	sts	0x01B8, r1
     920:	8f ed       	ldi	r24, 0xDF	; 223
     922:	9e e2       	ldi	r25, 0x2E	; 46
     924:	01 97       	sbiw	r24, 0x01	; 1
     926:	f1 f7       	brne	.-4      	; 0x924 <__stack+0x25>
     928:	00 c0       	rjmp	.+0      	; 0x92a <__stack+0x2b>
     92a:	00 00       	nop
     92c:	80 91 bc 01 	lds	r24, 0x01BC
     930:	8f 5f       	subi	r24, 0xFF	; 255
     932:	80 93 bc 01 	sts	0x01BC, r24
     936:	08 95       	ret

00000938 <lcd_print_lcd>:
     938:	80 91 b7 01 	lds	r24, 0x01B7
     93c:	89 32       	cpi	r24, 0x29	; 41
     93e:	09 f0       	breq	.+2      	; 0x942 <lcd_print_lcd+0xa>
     940:	95 c0       	rjmp	.+298    	; 0xa6c <lcd_print_lcd+0x134>
     942:	61 e0       	ldi	r22, 0x01	; 1
     944:	84 e0       	ldi	r24, 0x04	; 4
     946:	0e 94 c9 00 	call	0x192	; 0x192 <lcd_gotoxy>
     94a:	81 e0       	ldi	r24, 0x01	; 1
     94c:	90 91 c3 01 	lds	r25, 0x01C3
     950:	91 11       	cpse	r25, r1
     952:	80 e0       	ldi	r24, 0x00	; 0
     954:	1f 92       	push	r1
     956:	8f 93       	push	r24
     958:	81 e0       	ldi	r24, 0x01	; 1
     95a:	90 91 c2 01 	lds	r25, 0x01C2
     95e:	91 11       	cpse	r25, r1
     960:	80 e0       	ldi	r24, 0x00	; 0
     962:	1f 92       	push	r1
     964:	8f 93       	push	r24
     966:	81 e0       	ldi	r24, 0x01	; 1
     968:	90 91 c1 01 	lds	r25, 0x01C1
     96c:	91 11       	cpse	r25, r1
     96e:	80 e0       	ldi	r24, 0x00	; 0
     970:	1f 92       	push	r1
     972:	8f 93       	push	r24
     974:	81 e0       	ldi	r24, 0x01	; 1
     976:	90 91 c0 01 	lds	r25, 0x01C0
     97a:	91 11       	cpse	r25, r1
     97c:	80 e0       	ldi	r24, 0x00	; 0
     97e:	1f 92       	push	r1
     980:	8f 93       	push	r24
     982:	81 e0       	ldi	r24, 0x01	; 1
     984:	90 91 bf 01 	lds	r25, 0x01BF
     988:	91 11       	cpse	r25, r1
     98a:	80 e0       	ldi	r24, 0x00	; 0
     98c:	1f 92       	push	r1
     98e:	8f 93       	push	r24
     990:	81 e4       	ldi	r24, 0x41	; 65
     992:	91 e0       	ldi	r25, 0x01	; 1
     994:	9f 93       	push	r25
     996:	8f 93       	push	r24
     998:	0e 94 b5 09 	call	0x136a	; 0x136a <printf>
     99c:	80 91 d2 01 	lds	r24, 0x01D2
     9a0:	2d b7       	in	r18, 0x3d	; 61
     9a2:	3e b7       	in	r19, 0x3e	; 62
     9a4:	24 5f       	subi	r18, 0xF4	; 244
     9a6:	3f 4f       	sbci	r19, 0xFF	; 255
     9a8:	0f b6       	in	r0, 0x3f	; 63
     9aa:	f8 94       	cli
     9ac:	3e bf       	out	0x3e, r19	; 62
     9ae:	0f be       	out	0x3f, r0	; 63
     9b0:	2d bf       	out	0x3d, r18	; 61
     9b2:	86 39       	cpi	r24, 0x96	; 150
     9b4:	39 f4       	brne	.+14     	; 0x9c4 <lcd_print_lcd+0x8c>
     9b6:	62 e0       	ldi	r22, 0x02	; 2
     9b8:	81 e0       	ldi	r24, 0x01	; 1
     9ba:	0e 94 c9 00 	call	0x192	; 0x192 <lcd_gotoxy>
     9be:	84 e5       	ldi	r24, 0x54	; 84
     9c0:	91 e0       	ldi	r25, 0x01	; 1
     9c2:	0a c0       	rjmp	.+20     	; 0x9d8 <lcd_print_lcd+0xa0>
     9c4:	80 91 d2 01 	lds	r24, 0x01D2
     9c8:	87 39       	cpi	r24, 0x97	; 151
     9ca:	61 f4       	brne	.+24     	; 0x9e4 <lcd_print_lcd+0xac>
     9cc:	62 e0       	ldi	r22, 0x02	; 2
     9ce:	81 e0       	ldi	r24, 0x01	; 1
     9d0:	0e 94 c9 00 	call	0x192	; 0x192 <lcd_gotoxy>
     9d4:	89 e5       	ldi	r24, 0x59	; 89
     9d6:	91 e0       	ldi	r25, 0x01	; 1
     9d8:	9f 93       	push	r25
     9da:	8f 93       	push	r24
     9dc:	0e 94 b5 09 	call	0x136a	; 0x136a <printf>
     9e0:	0f 90       	pop	r0
     9e2:	0f 90       	pop	r0
     9e4:	62 e0       	ldi	r22, 0x02	; 2
     9e6:	89 e0       	ldi	r24, 0x09	; 9
     9e8:	0e 94 c9 00 	call	0x192	; 0x192 <lcd_gotoxy>
     9ec:	80 91 bc 01 	lds	r24, 0x01BC
     9f0:	1f 92       	push	r1
     9f2:	8f 93       	push	r24
     9f4:	8e e5       	ldi	r24, 0x5E	; 94
     9f6:	91 e0       	ldi	r25, 0x01	; 1
     9f8:	9f 93       	push	r25
     9fa:	8f 93       	push	r24
     9fc:	0e 94 b5 09 	call	0x136a	; 0x136a <printf>
     a00:	80 91 c6 01 	lds	r24, 0x01C6
     a04:	90 91 c7 01 	lds	r25, 0x01C7
     a08:	0f 90       	pop	r0
     a0a:	0f 90       	pop	r0
     a0c:	0f 90       	pop	r0
     a0e:	0f 90       	pop	r0
     a10:	89 2b       	or	r24, r25
     a12:	39 f0       	breq	.+14     	; 0xa22 <lcd_print_lcd+0xea>
     a14:	63 e0       	ldi	r22, 0x03	; 3
     a16:	81 e0       	ldi	r24, 0x01	; 1
     a18:	0e 94 c9 00 	call	0x192	; 0x192 <lcd_gotoxy>
     a1c:	88 e6       	ldi	r24, 0x68	; 104
     a1e:	91 e0       	ldi	r25, 0x01	; 1
     a20:	0c c0       	rjmp	.+24     	; 0xa3a <lcd_print_lcd+0x102>
     a22:	80 91 c6 01 	lds	r24, 0x01C6
     a26:	90 91 c7 01 	lds	r25, 0x01C7
     a2a:	89 2b       	or	r24, r25
     a2c:	61 f4       	brne	.+24     	; 0xa46 <lcd_print_lcd+0x10e>
     a2e:	63 e0       	ldi	r22, 0x03	; 3
     a30:	81 e0       	ldi	r24, 0x01	; 1
     a32:	0e 94 c9 00 	call	0x192	; 0x192 <lcd_gotoxy>
     a36:	8c e7       	ldi	r24, 0x7C	; 124
     a38:	91 e0       	ldi	r25, 0x01	; 1
     a3a:	9f 93       	push	r25
     a3c:	8f 93       	push	r24
     a3e:	0e 94 b5 09 	call	0x136a	; 0x136a <printf>
     a42:	0f 90       	pop	r0
     a44:	0f 90       	pop	r0
     a46:	64 e0       	ldi	r22, 0x04	; 4
     a48:	81 e0       	ldi	r24, 0x01	; 1
     a4a:	0e 94 c9 00 	call	0x192	; 0x192 <lcd_gotoxy>
     a4e:	8c e9       	ldi	r24, 0x9C	; 156
     a50:	91 e0       	ldi	r25, 0x01	; 1
     a52:	9f 93       	push	r25
     a54:	8f 93       	push	r24
     a56:	8c e8       	ldi	r24, 0x8C	; 140
     a58:	91 e0       	ldi	r25, 0x01	; 1
     a5a:	9f 93       	push	r25
     a5c:	8f 93       	push	r24
     a5e:	0e 94 b5 09 	call	0x136a	; 0x136a <printf>
     a62:	0f 90       	pop	r0
     a64:	0f 90       	pop	r0
     a66:	0f 90       	pop	r0
     a68:	0f 90       	pop	r0
     a6a:	04 c0       	rjmp	.+8      	; 0xa74 <lcd_print_lcd+0x13c>
     a6c:	80 91 b7 01 	lds	r24, 0x01B7
     a70:	88 32       	cpi	r24, 0x28	; 40
     a72:	49 f3       	breq	.-46     	; 0xa46 <lcd_print_lcd+0x10e>
     a74:	8c e0       	ldi	r24, 0x0C	; 12
     a76:	0c 94 b5 00 	jmp	0x16a	; 0x16a <lcdCommand>

00000a7a <Print_Battery>:
     a7a:	88 3f       	cpi	r24, 0xF8	; 248
     a7c:	21 e1       	ldi	r18, 0x11	; 17
     a7e:	92 07       	cpc	r25, r18
     a80:	58 f0       	brcs	.+22     	; 0xa98 <Print_Battery+0x1e>
     a82:	8a e0       	ldi	r24, 0x0A	; 10
     a84:	80 93 d5 01 	sts	0x01D5, r24
     a88:	80 91 d5 01 	lds	r24, 0x01D5
     a8c:	ec e9       	ldi	r30, 0x9C	; 156
     a8e:	f1 e0       	ldi	r31, 0x01	; 1
     a90:	90 e0       	ldi	r25, 0x00	; 0
     a92:	20 e2       	ldi	r18, 0x20	; 32
     a94:	3f ef       	ldi	r19, 0xFF	; 255
     a96:	3d c0       	rjmp	.+122    	; 0xb12 <Print_Battery+0x98>
     a98:	84 39       	cpi	r24, 0x94	; 148
     a9a:	21 e1       	ldi	r18, 0x11	; 17
     a9c:	92 07       	cpc	r25, r18
     a9e:	10 f0       	brcs	.+4      	; 0xaa4 <Print_Battery+0x2a>
     aa0:	89 e0       	ldi	r24, 0x09	; 9
     aa2:	f0 cf       	rjmp	.-32     	; 0xa84 <Print_Battery+0xa>
     aa4:	80 33       	cpi	r24, 0x30	; 48
     aa6:	21 e1       	ldi	r18, 0x11	; 17
     aa8:	92 07       	cpc	r25, r18
     aaa:	10 f0       	brcs	.+4      	; 0xab0 <Print_Battery+0x36>
     aac:	88 e0       	ldi	r24, 0x08	; 8
     aae:	ea cf       	rjmp	.-44     	; 0xa84 <Print_Battery+0xa>
     ab0:	8c 3c       	cpi	r24, 0xCC	; 204
     ab2:	20 e1       	ldi	r18, 0x10	; 16
     ab4:	92 07       	cpc	r25, r18
     ab6:	10 f0       	brcs	.+4      	; 0xabc <Print_Battery+0x42>
     ab8:	87 e0       	ldi	r24, 0x07	; 7
     aba:	e4 cf       	rjmp	.-56     	; 0xa84 <Print_Battery+0xa>
     abc:	84 30       	cpi	r24, 0x04	; 4
     abe:	20 e1       	ldi	r18, 0x10	; 16
     ac0:	92 07       	cpc	r25, r18
     ac2:	10 f0       	brcs	.+4      	; 0xac8 <Print_Battery+0x4e>
     ac4:	86 e0       	ldi	r24, 0x06	; 6
     ac6:	de cf       	rjmp	.-68     	; 0xa84 <Print_Battery+0xa>
     ac8:	8c 33       	cpi	r24, 0x3C	; 60
     aca:	2f e0       	ldi	r18, 0x0F	; 15
     acc:	92 07       	cpc	r25, r18
     ace:	10 f0       	brcs	.+4      	; 0xad4 <Print_Battery+0x5a>
     ad0:	85 e0       	ldi	r24, 0x05	; 5
     ad2:	d8 cf       	rjmp	.-80     	; 0xa84 <Print_Battery+0xa>
     ad4:	84 37       	cpi	r24, 0x74	; 116
     ad6:	2e e0       	ldi	r18, 0x0E	; 14
     ad8:	92 07       	cpc	r25, r18
     ada:	10 f0       	brcs	.+4      	; 0xae0 <Print_Battery+0x66>
     adc:	84 e0       	ldi	r24, 0x04	; 4
     ade:	d2 cf       	rjmp	.-92     	; 0xa84 <Print_Battery+0xa>
     ae0:	8c 3a       	cpi	r24, 0xAC	; 172
     ae2:	2d e0       	ldi	r18, 0x0D	; 13
     ae4:	92 07       	cpc	r25, r18
     ae6:	10 f0       	brcs	.+4      	; 0xaec <Print_Battery+0x72>
     ae8:	83 e0       	ldi	r24, 0x03	; 3
     aea:	cc cf       	rjmp	.-104    	; 0xa84 <Print_Battery+0xa>
     aec:	84 3e       	cpi	r24, 0xE4	; 228
     aee:	2c e0       	ldi	r18, 0x0C	; 12
     af0:	92 07       	cpc	r25, r18
     af2:	10 f0       	brcs	.+4      	; 0xaf8 <Print_Battery+0x7e>
     af4:	82 e0       	ldi	r24, 0x02	; 2
     af6:	c6 cf       	rjmp	.-116    	; 0xa84 <Print_Battery+0xa>
     af8:	8c 31       	cpi	r24, 0x1C	; 28
     afa:	9c 40       	sbci	r25, 0x0C	; 12
     afc:	10 f0       	brcs	.+4      	; 0xb02 <Print_Battery+0x88>
     afe:	81 e0       	ldi	r24, 0x01	; 1
     b00:	c1 cf       	rjmp	.-126    	; 0xa84 <Print_Battery+0xa>
     b02:	10 92 d5 01 	sts	0x01D5, r1
     b06:	c0 cf       	rjmp	.-128    	; 0xa88 <Print_Battery+0xe>
     b08:	20 83       	st	Z, r18
     b0a:	9f 5f       	subi	r25, 0xFF	; 255
     b0c:	31 96       	adiw	r30, 0x01	; 1
     b0e:	9a 30       	cpi	r25, 0x0A	; 10
     b10:	21 f0       	breq	.+8      	; 0xb1a <Print_Battery+0xa0>
     b12:	98 17       	cp	r25, r24
     b14:	c8 f7       	brcc	.-14     	; 0xb08 <Print_Battery+0x8e>
     b16:	30 83       	st	Z, r19
     b18:	f8 cf       	rjmp	.-16     	; 0xb0a <Print_Battery+0x90>
     b1a:	2a e0       	ldi	r18, 0x0A	; 10
     b1c:	82 9f       	mul	r24, r18
     b1e:	c0 01       	movw	r24, r0
     b20:	11 24       	eor	r1, r1
     b22:	9f 93       	push	r25
     b24:	8f 93       	push	r24
     b26:	81 e5       	ldi	r24, 0x51	; 81
     b28:	91 e0       	ldi	r25, 0x01	; 1
     b2a:	9f 93       	push	r25
     b2c:	8f 93       	push	r24
     b2e:	86 ea       	ldi	r24, 0xA6	; 166
     b30:	91 e0       	ldi	r25, 0x01	; 1
     b32:	9f 93       	push	r25
     b34:	8f 93       	push	r24
     b36:	0e 94 cb 09 	call	0x1396	; 0x1396 <sprintf>
     b3a:	80 91 d5 01 	lds	r24, 0x01D5
     b3e:	0f 90       	pop	r0
     b40:	0f 90       	pop	r0
     b42:	0f 90       	pop	r0
     b44:	0f 90       	pop	r0
     b46:	0f 90       	pop	r0
     b48:	0f 90       	pop	r0
     b4a:	81 11       	cpse	r24, r1
     b4c:	0c c0       	rjmp	.+24     	; 0xb66 <Print_Battery+0xec>
     b4e:	85 e2       	ldi	r24, 0x25	; 37
     b50:	80 93 a7 01 	sts	0x01A7, r24
     b54:	e8 ea       	ldi	r30, 0xA8	; 168
     b56:	f1 e0       	ldi	r31, 0x01	; 1
     b58:	90 e2       	ldi	r25, 0x20	; 32
     b5a:	88 e0       	ldi	r24, 0x08	; 8
     b5c:	8e 0f       	add	r24, r30
     b5e:	91 93       	st	Z+, r25
     b60:	8e 13       	cpse	r24, r30
     b62:	fd cf       	rjmp	.-6      	; 0xb5e <Print_Battery+0xe4>
     b64:	08 95       	ret
     b66:	2a e0       	ldi	r18, 0x0A	; 10
     b68:	82 9f       	mul	r24, r18
     b6a:	c0 01       	movw	r24, r0
     b6c:	11 24       	eor	r1, r1
     b6e:	84 36       	cpi	r24, 0x64	; 100
     b70:	91 05       	cpc	r25, r1
     b72:	64 f4       	brge	.+24     	; 0xb8c <Print_Battery+0x112>
     b74:	85 e2       	ldi	r24, 0x25	; 37
     b76:	80 93 a8 01 	sts	0x01A8, r24
     b7a:	e9 ea       	ldi	r30, 0xA9	; 169
     b7c:	f1 e0       	ldi	r31, 0x01	; 1
     b7e:	90 e2       	ldi	r25, 0x20	; 32
     b80:	87 e0       	ldi	r24, 0x07	; 7
     b82:	8e 0f       	add	r24, r30
     b84:	91 93       	st	Z+, r25
     b86:	8e 13       	cpse	r24, r30
     b88:	fd cf       	rjmp	.-6      	; 0xb84 <Print_Battery+0x10a>
     b8a:	08 95       	ret
     b8c:	84 36       	cpi	r24, 0x64	; 100
     b8e:	91 05       	cpc	r25, r1
     b90:	81 f4       	brne	.+32     	; 0xbb2 <Print_Battery+0x138>
     b92:	85 e2       	ldi	r24, 0x25	; 37
     b94:	80 93 a9 01 	sts	0x01A9, r24
     b98:	80 e2       	ldi	r24, 0x20	; 32
     b9a:	80 93 aa 01 	sts	0x01AA, r24
     b9e:	80 93 ab 01 	sts	0x01AB, r24
     ba2:	80 93 ac 01 	sts	0x01AC, r24
     ba6:	80 93 ad 01 	sts	0x01AD, r24
     baa:	80 93 ae 01 	sts	0x01AE, r24
     bae:	80 93 af 01 	sts	0x01AF, r24
     bb2:	08 95       	ret

00000bb4 <Read_Battery>:
     bb4:	80 e0       	ldi	r24, 0x00	; 0
     bb6:	0e 94 58 01 	call	0x2b0	; 0x2b0 <read_adc>
     bba:	90 93 c9 01 	sts	0x01C9, r25
     bbe:	80 93 c8 01 	sts	0x01C8, r24
     bc2:	20 91 ba 01 	lds	r18, 0x01BA
     bc6:	30 91 bb 01 	lds	r19, 0x01BB
     bca:	82 17       	cp	r24, r18
     bcc:	93 07       	cpc	r25, r19
     bce:	21 f1       	breq	.+72     	; 0xc18 <Read_Battery+0x64>
     bd0:	90 93 bb 01 	sts	0x01BB, r25
     bd4:	80 93 ba 01 	sts	0x01BA, r24
     bd8:	bc 01       	movw	r22, r24
     bda:	80 e0       	ldi	r24, 0x00	; 0
     bdc:	90 e0       	ldi	r25, 0x00	; 0
     bde:	0e 94 ba 08 	call	0x1174	; 0x1174 <__floatunsisf>
     be2:	20 e0       	ldi	r18, 0x00	; 0
     be4:	30 e0       	ldi	r19, 0x00	; 0
     be6:	40 ea       	ldi	r20, 0xA0	; 160
     be8:	50 e4       	ldi	r21, 0x40	; 64
     bea:	0e 94 20 09 	call	0x1240	; 0x1240 <__mulsf3>
     bee:	20 e0       	ldi	r18, 0x00	; 0
     bf0:	30 e0       	ldi	r19, 0x00	; 0
     bf2:	4a e7       	ldi	r20, 0x7A	; 122
     bf4:	54 e4       	ldi	r21, 0x44	; 68
     bf6:	0e 94 20 09 	call	0x1240	; 0x1240 <__mulsf3>
     bfa:	20 e0       	ldi	r18, 0x00	; 0
     bfc:	30 e0       	ldi	r19, 0x00	; 0
     bfe:	40 e8       	ldi	r20, 0x80	; 128
     c00:	5a e3       	ldi	r21, 0x3A	; 58
     c02:	0e 94 20 09 	call	0x1240	; 0x1240 <__mulsf3>
     c06:	0e 94 8b 08 	call	0x1116	; 0x1116 <__fixunssfsi>
     c0a:	70 93 be 01 	sts	0x01BE, r23
     c0e:	60 93 bd 01 	sts	0x01BD, r22
     c12:	cb 01       	movw	r24, r22
     c14:	0c 94 3d 05 	jmp	0xa7a	; 0xa7a <Print_Battery>
     c18:	08 95       	ret

00000c1a <Send_To_Bluetooth>:
     c1a:	80 91 bf 01 	lds	r24, 0x01BF
     c1e:	81 11       	cpse	r24, r1
     c20:	0b c0       	rjmp	.+22     	; 0xc38 <Send_To_Bluetooth+0x1e>
     c22:	80 91 ce 01 	lds	r24, 0x01CE
     c26:	90 91 cf 01 	lds	r25, 0x01CF
     c2a:	89 2b       	or	r24, r25
     c2c:	d1 f4       	brne	.+52     	; 0xc62 <Send_To_Bluetooth+0x48>
     c2e:	80 91 b5 01 	lds	r24, 0x01B5
     c32:	81 30       	cpi	r24, 0x01	; 1
     c34:	b1 f4       	brne	.+44     	; 0xc62 <Send_To_Bluetooth+0x48>
     c36:	0b c0       	rjmp	.+22     	; 0xc4e <Send_To_Bluetooth+0x34>
     c38:	80 91 ce 01 	lds	r24, 0x01CE
     c3c:	90 91 cf 01 	lds	r25, 0x01CF
     c40:	89 2b       	or	r24, r25
     c42:	79 f4       	brne	.+30     	; 0xc62 <Send_To_Bluetooth+0x48>
     c44:	80 91 b5 01 	lds	r24, 0x01B5
     c48:	81 30       	cpi	r24, 0x01	; 1
     c4a:	59 f4       	brne	.+22     	; 0xc62 <Send_To_Bluetooth+0x48>
     c4c:	8b e0       	ldi	r24, 0x0B	; 11
     c4e:	0e 94 3a 01 	call	0x274	; 0x274 <Send_Data>
     c52:	82 e0       	ldi	r24, 0x02	; 2
     c54:	90 e0       	ldi	r25, 0x00	; 0
     c56:	90 93 cf 01 	sts	0x01CF, r25
     c5a:	80 93 ce 01 	sts	0x01CE, r24
     c5e:	80 93 b5 01 	sts	0x01B5, r24
     c62:	80 91 c0 01 	lds	r24, 0x01C0
     c66:	81 11       	cpse	r24, r1
     c68:	0b c0       	rjmp	.+22     	; 0xc80 <Send_To_Bluetooth+0x66>
     c6a:	80 91 ce 01 	lds	r24, 0x01CE
     c6e:	90 91 cf 01 	lds	r25, 0x01CF
     c72:	89 2b       	or	r24, r25
     c74:	d9 f4       	brne	.+54     	; 0xcac <Send_To_Bluetooth+0x92>
     c76:	80 91 b5 01 	lds	r24, 0x01B5
     c7a:	82 30       	cpi	r24, 0x02	; 2
     c7c:	b9 f4       	brne	.+46     	; 0xcac <Send_To_Bluetooth+0x92>
     c7e:	0b c0       	rjmp	.+22     	; 0xc96 <Send_To_Bluetooth+0x7c>
     c80:	80 91 ce 01 	lds	r24, 0x01CE
     c84:	90 91 cf 01 	lds	r25, 0x01CF
     c88:	89 2b       	or	r24, r25
     c8a:	81 f4       	brne	.+32     	; 0xcac <Send_To_Bluetooth+0x92>
     c8c:	80 91 b5 01 	lds	r24, 0x01B5
     c90:	82 30       	cpi	r24, 0x02	; 2
     c92:	61 f4       	brne	.+24     	; 0xcac <Send_To_Bluetooth+0x92>
     c94:	8c e0       	ldi	r24, 0x0C	; 12
     c96:	0e 94 3a 01 	call	0x274	; 0x274 <Send_Data>
     c9a:	82 e0       	ldi	r24, 0x02	; 2
     c9c:	90 e0       	ldi	r25, 0x00	; 0
     c9e:	90 93 cf 01 	sts	0x01CF, r25
     ca2:	80 93 ce 01 	sts	0x01CE, r24
     ca6:	83 e0       	ldi	r24, 0x03	; 3
     ca8:	80 93 b5 01 	sts	0x01B5, r24
     cac:	80 91 c1 01 	lds	r24, 0x01C1
     cb0:	81 11       	cpse	r24, r1
     cb2:	0b c0       	rjmp	.+22     	; 0xcca <Send_To_Bluetooth+0xb0>
     cb4:	80 91 ce 01 	lds	r24, 0x01CE
     cb8:	90 91 cf 01 	lds	r25, 0x01CF
     cbc:	89 2b       	or	r24, r25
     cbe:	d9 f4       	brne	.+54     	; 0xcf6 <Send_To_Bluetooth+0xdc>
     cc0:	80 91 b5 01 	lds	r24, 0x01B5
     cc4:	83 30       	cpi	r24, 0x03	; 3
     cc6:	b9 f4       	brne	.+46     	; 0xcf6 <Send_To_Bluetooth+0xdc>
     cc8:	0b c0       	rjmp	.+22     	; 0xce0 <Send_To_Bluetooth+0xc6>
     cca:	80 91 ce 01 	lds	r24, 0x01CE
     cce:	90 91 cf 01 	lds	r25, 0x01CF
     cd2:	89 2b       	or	r24, r25
     cd4:	81 f4       	brne	.+32     	; 0xcf6 <Send_To_Bluetooth+0xdc>
     cd6:	80 91 b5 01 	lds	r24, 0x01B5
     cda:	83 30       	cpi	r24, 0x03	; 3
     cdc:	61 f4       	brne	.+24     	; 0xcf6 <Send_To_Bluetooth+0xdc>
     cde:	8d e0       	ldi	r24, 0x0D	; 13
     ce0:	0e 94 3a 01 	call	0x274	; 0x274 <Send_Data>
     ce4:	82 e0       	ldi	r24, 0x02	; 2
     ce6:	90 e0       	ldi	r25, 0x00	; 0
     ce8:	90 93 cf 01 	sts	0x01CF, r25
     cec:	80 93 ce 01 	sts	0x01CE, r24
     cf0:	84 e0       	ldi	r24, 0x04	; 4
     cf2:	80 93 b5 01 	sts	0x01B5, r24
     cf6:	80 91 c2 01 	lds	r24, 0x01C2
     cfa:	81 11       	cpse	r24, r1
     cfc:	0b c0       	rjmp	.+22     	; 0xd14 <Send_To_Bluetooth+0xfa>
     cfe:	80 91 ce 01 	lds	r24, 0x01CE
     d02:	90 91 cf 01 	lds	r25, 0x01CF
     d06:	89 2b       	or	r24, r25
     d08:	d9 f4       	brne	.+54     	; 0xd40 <Send_To_Bluetooth+0x126>
     d0a:	80 91 b5 01 	lds	r24, 0x01B5
     d0e:	84 30       	cpi	r24, 0x04	; 4
     d10:	b9 f4       	brne	.+46     	; 0xd40 <Send_To_Bluetooth+0x126>
     d12:	0b c0       	rjmp	.+22     	; 0xd2a <Send_To_Bluetooth+0x110>
     d14:	80 91 ce 01 	lds	r24, 0x01CE
     d18:	90 91 cf 01 	lds	r25, 0x01CF
     d1c:	89 2b       	or	r24, r25
     d1e:	81 f4       	brne	.+32     	; 0xd40 <Send_To_Bluetooth+0x126>
     d20:	80 91 b5 01 	lds	r24, 0x01B5
     d24:	84 30       	cpi	r24, 0x04	; 4
     d26:	61 f4       	brne	.+24     	; 0xd40 <Send_To_Bluetooth+0x126>
     d28:	8e e0       	ldi	r24, 0x0E	; 14
     d2a:	0e 94 3a 01 	call	0x274	; 0x274 <Send_Data>
     d2e:	82 e0       	ldi	r24, 0x02	; 2
     d30:	90 e0       	ldi	r25, 0x00	; 0
     d32:	90 93 cf 01 	sts	0x01CF, r25
     d36:	80 93 ce 01 	sts	0x01CE, r24
     d3a:	85 e0       	ldi	r24, 0x05	; 5
     d3c:	80 93 b5 01 	sts	0x01B5, r24
     d40:	80 91 c3 01 	lds	r24, 0x01C3
     d44:	81 11       	cpse	r24, r1
     d46:	1c c0       	rjmp	.+56     	; 0xd80 <Send_To_Bluetooth+0x166>
     d48:	80 91 ce 01 	lds	r24, 0x01CE
     d4c:	90 91 cf 01 	lds	r25, 0x01CF
     d50:	89 2b       	or	r24, r25
     d52:	11 f5       	brne	.+68     	; 0xd98 <Send_To_Bluetooth+0x17e>
     d54:	80 91 b5 01 	lds	r24, 0x01B5
     d58:	85 30       	cpi	r24, 0x05	; 5
     d5a:	f1 f4       	brne	.+60     	; 0xd98 <Send_To_Bluetooth+0x17e>
     d5c:	0e 94 3a 01 	call	0x274	; 0x274 <Send_Data>
     d60:	82 e0       	ldi	r24, 0x02	; 2
     d62:	90 e0       	ldi	r25, 0x00	; 0
     d64:	90 93 cf 01 	sts	0x01CF, r25
     d68:	80 93 ce 01 	sts	0x01CE, r24
     d6c:	80 91 d2 01 	lds	r24, 0x01D2
     d70:	86 39       	cpi	r24, 0x96	; 150
     d72:	11 f4       	brne	.+4      	; 0xd78 <Send_To_Bluetooth+0x15e>
     d74:	86 e0       	ldi	r24, 0x06	; 6
     d76:	01 c0       	rjmp	.+2      	; 0xd7a <Send_To_Bluetooth+0x160>
     d78:	81 e0       	ldi	r24, 0x01	; 1
     d7a:	80 93 b5 01 	sts	0x01B5, r24
     d7e:	0c c0       	rjmp	.+24     	; 0xd98 <Send_To_Bluetooth+0x17e>
     d80:	80 91 ce 01 	lds	r24, 0x01CE
     d84:	90 91 cf 01 	lds	r25, 0x01CF
     d88:	89 2b       	or	r24, r25
     d8a:	31 f4       	brne	.+12     	; 0xd98 <Send_To_Bluetooth+0x17e>
     d8c:	80 91 b5 01 	lds	r24, 0x01B5
     d90:	85 30       	cpi	r24, 0x05	; 5
     d92:	11 f4       	brne	.+4      	; 0xd98 <Send_To_Bluetooth+0x17e>
     d94:	8f e0       	ldi	r24, 0x0F	; 15
     d96:	e2 cf       	rjmp	.-60     	; 0xd5c <Send_To_Bluetooth+0x142>
     d98:	80 91 d2 01 	lds	r24, 0x01D2
     d9c:	86 39       	cpi	r24, 0x96	; 150
     d9e:	81 f4       	brne	.+32     	; 0xdc0 <Send_To_Bluetooth+0x1a6>
     da0:	80 91 b5 01 	lds	r24, 0x01B5
     da4:	86 30       	cpi	r24, 0x06	; 6
     da6:	61 f4       	brne	.+24     	; 0xdc0 <Send_To_Bluetooth+0x1a6>
     da8:	8d e7       	ldi	r24, 0x7D	; 125
     daa:	0e 94 3a 01 	call	0x274	; 0x274 <Send_Data>
     dae:	81 e0       	ldi	r24, 0x01	; 1
     db0:	80 93 b5 01 	sts	0x01B5, r24
     db4:	82 e0       	ldi	r24, 0x02	; 2
     db6:	90 e0       	ldi	r25, 0x00	; 0
     db8:	90 93 cf 01 	sts	0x01CF, r25
     dbc:	80 93 ce 01 	sts	0x01CE, r24
     dc0:	08 95       	ret

00000dc2 <Send_Battery_Bluetooth>:
     dc2:	80 91 d5 01 	lds	r24, 0x01D5
     dc6:	8a 30       	cpi	r24, 0x0A	; 10
     dc8:	11 f4       	brne	.+4      	; 0xdce <Send_Battery_Bluetooth+0xc>
     dca:	8e e1       	ldi	r24, 0x1E	; 30
     dcc:	27 c0       	rjmp	.+78     	; 0xe1c <Send_Battery_Bluetooth+0x5a>
     dce:	89 30       	cpi	r24, 0x09	; 9
     dd0:	11 f4       	brne	.+4      	; 0xdd6 <Send_Battery_Bluetooth+0x14>
     dd2:	8d e1       	ldi	r24, 0x1D	; 29
     dd4:	23 c0       	rjmp	.+70     	; 0xe1c <Send_Battery_Bluetooth+0x5a>
     dd6:	88 30       	cpi	r24, 0x08	; 8
     dd8:	11 f4       	brne	.+4      	; 0xdde <Send_Battery_Bluetooth+0x1c>
     dda:	8c e1       	ldi	r24, 0x1C	; 28
     ddc:	1f c0       	rjmp	.+62     	; 0xe1c <Send_Battery_Bluetooth+0x5a>
     dde:	87 30       	cpi	r24, 0x07	; 7
     de0:	11 f4       	brne	.+4      	; 0xde6 <Send_Battery_Bluetooth+0x24>
     de2:	8b e1       	ldi	r24, 0x1B	; 27
     de4:	1b c0       	rjmp	.+54     	; 0xe1c <Send_Battery_Bluetooth+0x5a>
     de6:	86 30       	cpi	r24, 0x06	; 6
     de8:	11 f4       	brne	.+4      	; 0xdee <Send_Battery_Bluetooth+0x2c>
     dea:	8a e1       	ldi	r24, 0x1A	; 26
     dec:	17 c0       	rjmp	.+46     	; 0xe1c <Send_Battery_Bluetooth+0x5a>
     dee:	85 30       	cpi	r24, 0x05	; 5
     df0:	11 f4       	brne	.+4      	; 0xdf6 <Send_Battery_Bluetooth+0x34>
     df2:	89 e1       	ldi	r24, 0x19	; 25
     df4:	13 c0       	rjmp	.+38     	; 0xe1c <Send_Battery_Bluetooth+0x5a>
     df6:	84 30       	cpi	r24, 0x04	; 4
     df8:	11 f4       	brne	.+4      	; 0xdfe <Send_Battery_Bluetooth+0x3c>
     dfa:	88 e1       	ldi	r24, 0x18	; 24
     dfc:	0f c0       	rjmp	.+30     	; 0xe1c <Send_Battery_Bluetooth+0x5a>
     dfe:	83 30       	cpi	r24, 0x03	; 3
     e00:	11 f4       	brne	.+4      	; 0xe06 <Send_Battery_Bluetooth+0x44>
     e02:	87 e1       	ldi	r24, 0x17	; 23
     e04:	0b c0       	rjmp	.+22     	; 0xe1c <Send_Battery_Bluetooth+0x5a>
     e06:	82 30       	cpi	r24, 0x02	; 2
     e08:	11 f4       	brne	.+4      	; 0xe0e <Send_Battery_Bluetooth+0x4c>
     e0a:	86 e1       	ldi	r24, 0x16	; 22
     e0c:	07 c0       	rjmp	.+14     	; 0xe1c <Send_Battery_Bluetooth+0x5a>
     e0e:	81 30       	cpi	r24, 0x01	; 1
     e10:	11 f4       	brne	.+4      	; 0xe16 <Send_Battery_Bluetooth+0x54>
     e12:	85 e1       	ldi	r24, 0x15	; 21
     e14:	03 c0       	rjmp	.+6      	; 0xe1c <Send_Battery_Bluetooth+0x5a>
     e16:	81 11       	cpse	r24, r1
     e18:	03 c0       	rjmp	.+6      	; 0xe20 <Send_Battery_Bluetooth+0x5e>
     e1a:	84 e1       	ldi	r24, 0x14	; 20
     e1c:	0c 94 3a 01 	jmp	0x274	; 0x274 <Send_Data>
     e20:	08 95       	ret

00000e22 <main>:
     e22:	0e 94 5e 02 	call	0x4bc	; 0x4bc <Init>
     e26:	2f ef       	ldi	r18, 0xFF	; 255
     e28:	89 e6       	ldi	r24, 0x69	; 105
     e2a:	98 e1       	ldi	r25, 0x18	; 24
     e2c:	21 50       	subi	r18, 0x01	; 1
     e2e:	80 40       	sbci	r24, 0x00	; 0
     e30:	90 40       	sbci	r25, 0x00	; 0
     e32:	e1 f7       	brne	.-8      	; 0xe2c <main+0xa>
     e34:	00 c0       	rjmp	.+0      	; 0xe36 <main+0x14>
     e36:	00 00       	nop
     e38:	0e 94 2b 01 	call	0x256	; 0x256 <init_usart>
     e3c:	80 e0       	ldi	r24, 0x00	; 0
     e3e:	91 e0       	ldi	r25, 0x01	; 1
     e40:	90 93 d9 01 	sts	0x01D9, r25
     e44:	80 93 d8 01 	sts	0x01D8, r24
     e48:	0e 94 ec 00 	call	0x1d8	; 0x1d8 <lcd_init>
     e4c:	86 e9       	ldi	r24, 0x96	; 150
     e4e:	80 93 d2 01 	sts	0x01D2, r24
     e52:	89 e2       	ldi	r24, 0x29	; 41
     e54:	80 93 b7 01 	sts	0x01B7, r24
     e58:	10 92 d1 01 	sts	0x01D1, r1
     e5c:	10 92 cc 01 	sts	0x01CC, r1
     e60:	81 e0       	ldi	r24, 0x01	; 1
     e62:	80 93 b5 01 	sts	0x01B5, r24
     e66:	8a e0       	ldi	r24, 0x0A	; 10
     e68:	90 e0       	ldi	r25, 0x00	; 0
     e6a:	90 93 b3 01 	sts	0x01B3, r25
     e6e:	80 93 b2 01 	sts	0x01B2, r24
     e72:	10 92 cf 01 	sts	0x01CF, r1
     e76:	10 92 ce 01 	sts	0x01CE, r1
     e7a:	88 ee       	ldi	r24, 0xE8	; 232
     e7c:	93 e0       	ldi	r25, 0x03	; 3
     e7e:	90 93 c5 01 	sts	0x01C5, r25
     e82:	80 93 c4 01 	sts	0x01C4, r24
     e86:	0e 94 48 01 	call	0x290	; 0x290 <init_adc>
     e8a:	99 24       	eor	r9, r9
     e8c:	93 94       	inc	r9
     e8e:	cc e2       	ldi	r28, 0x2C	; 44
     e90:	d1 e0       	ldi	r29, 0x01	; 1
     e92:	00 e9       	ldi	r16, 0x90	; 144
     e94:	11 e0       	ldi	r17, 0x01	; 1
     e96:	84 e0       	ldi	r24, 0x04	; 4
     e98:	88 2e       	mov	r8, r24
     e9a:	9a e0       	ldi	r25, 0x0A	; 10
     e9c:	e9 2e       	mov	r14, r25
     e9e:	f1 2c       	mov	r15, r1
     ea0:	28 ee       	ldi	r18, 0xE8	; 232
     ea2:	c2 2e       	mov	r12, r18
     ea4:	23 e0       	ldi	r18, 0x03	; 3
     ea6:	d2 2e       	mov	r13, r18
     ea8:	34 e6       	ldi	r19, 0x64	; 100
     eaa:	a3 2e       	mov	r10, r19
     eac:	b1 2c       	mov	r11, r1
     eae:	80 91 b7 01 	lds	r24, 0x01B7
     eb2:	89 32       	cpi	r24, 0x29	; 41
     eb4:	09 f0       	breq	.+2      	; 0xeb8 <main+0x96>
     eb6:	77 c0       	rjmp	.+238    	; 0xfa6 <main+0x184>
     eb8:	80 93 b9 01 	sts	0x01B9, r24
     ebc:	0e 94 a9 02 	call	0x552	; 0x552 <Sensores>
     ec0:	80 91 d2 01 	lds	r24, 0x01D2
     ec4:	86 39       	cpi	r24, 0x96	; 150
     ec6:	09 f0       	breq	.+2      	; 0xeca <main+0xa8>
     ec8:	4b c0       	rjmp	.+150    	; 0xf60 <main+0x13e>
     eca:	0e 94 58 03 	call	0x6b0	; 0x6b0 <Calculo>
     ece:	80 91 cc 01 	lds	r24, 0x01CC
     ed2:	81 11       	cpse	r24, r1
     ed4:	05 c0       	rjmp	.+10     	; 0xee0 <main+0xbe>
     ed6:	0e 94 e6 03 	call	0x7cc	; 0x7cc <Modo_Run>
     eda:	0e 94 65 04 	call	0x8ca	; 0x8ca <Conta_Volta>
     ede:	46 c0       	rjmp	.+140    	; 0xf6c <main+0x14a>
     ee0:	80 91 b0 01 	lds	r24, 0x01B0
     ee4:	90 91 b1 01 	lds	r25, 0x01B1
     ee8:	89 2b       	or	r24, r25
     eea:	09 f0       	breq	.+2      	; 0xeee <main+0xcc>
     eec:	3f c0       	rjmp	.+126    	; 0xf6c <main+0x14a>
     eee:	10 92 d0 01 	sts	0x01D0, r1
     ef2:	80 91 d0 01 	lds	r24, 0x01D0
     ef6:	81 11       	cpse	r24, r1
     ef8:	02 c0       	rjmp	.+4      	; 0xefe <main+0xdc>
     efa:	0e 94 fc 03 	call	0x7f8	; 0x7f8 <Modo_Perdido>
     efe:	80 91 ca 01 	lds	r24, 0x01CA
     f02:	90 91 cb 01 	lds	r25, 0x01CB
     f06:	89 2b       	or	r24, r25
     f08:	39 f4       	brne	.+14     	; 0xf18 <main+0xf6>
     f0a:	85 b1       	in	r24, 0x05	; 5
     f0c:	89 25       	eor	r24, r9
     f0e:	85 b9       	out	0x05, r24	; 5
     f10:	b0 92 cb 01 	sts	0x01CB, r11
     f14:	a0 92 ca 01 	sts	0x01CA, r10
     f18:	0e 94 a9 02 	call	0x552	; 0x552 <Sensores>
     f1c:	80 91 bf 01 	lds	r24, 0x01BF
     f20:	88 23       	and	r24, r24
     f22:	81 f0       	breq	.+32     	; 0xf44 <main+0x122>
     f24:	80 91 c0 01 	lds	r24, 0x01C0
     f28:	88 23       	and	r24, r24
     f2a:	61 f0       	breq	.+24     	; 0xf44 <main+0x122>
     f2c:	80 91 c1 01 	lds	r24, 0x01C1
     f30:	88 23       	and	r24, r24
     f32:	41 f0       	breq	.+16     	; 0xf44 <main+0x122>
     f34:	80 91 c2 01 	lds	r24, 0x01C2
     f38:	88 23       	and	r24, r24
     f3a:	21 f0       	breq	.+8      	; 0xf44 <main+0x122>
     f3c:	80 91 c3 01 	lds	r24, 0x01C3
     f40:	81 11       	cpse	r24, r1
     f42:	d7 cf       	rjmp	.-82     	; 0xef2 <main+0xd0>
     f44:	10 92 cc 01 	sts	0x01CC, r1
     f48:	0e 94 ec 00 	call	0x1d8	; 0x1d8 <lcd_init>
     f4c:	8b e7       	ldi	r24, 0x7B	; 123
     f4e:	0e 94 3a 01 	call	0x274	; 0x274 <Send_Data>
     f52:	8f e3       	ldi	r24, 0x3F	; 63
     f54:	9f e1       	ldi	r25, 0x1F	; 31
     f56:	01 97       	sbiw	r24, 0x01	; 1
     f58:	f1 f7       	brne	.-4      	; 0xf56 <main+0x134>
     f5a:	00 c0       	rjmp	.+0      	; 0xf5c <main+0x13a>
     f5c:	00 00       	nop
     f5e:	06 c0       	rjmp	.+12     	; 0xf6c <main+0x14a>
     f60:	80 91 d2 01 	lds	r24, 0x01D2
     f64:	87 39       	cpi	r24, 0x97	; 151
     f66:	11 f4       	brne	.+4      	; 0xf6c <main+0x14a>
     f68:	0e 94 ea 03 	call	0x7d4	; 0x7d4 <Modo_Stop>
     f6c:	80 91 c4 01 	lds	r24, 0x01C4
     f70:	90 91 c5 01 	lds	r25, 0x01C5
     f74:	89 2b       	or	r24, r25
     f76:	41 f4       	brne	.+16     	; 0xf88 <main+0x166>
     f78:	0e 94 da 05 	call	0xbb4	; 0xbb4 <Read_Battery>
     f7c:	d0 92 c5 01 	sts	0x01C5, r13
     f80:	c0 92 c4 01 	sts	0x01C4, r12
     f84:	0e 94 e1 06 	call	0xdc2	; 0xdc2 <Send_Battery_Bluetooth>
     f88:	80 91 b2 01 	lds	r24, 0x01B2
     f8c:	90 91 b3 01 	lds	r25, 0x01B3
     f90:	89 2b       	or	r24, r25
     f92:	31 f4       	brne	.+12     	; 0xfa0 <main+0x17e>
     f94:	0e 94 9c 04 	call	0x938	; 0x938 <lcd_print_lcd>
     f98:	f0 92 b3 01 	sts	0x01B3, r15
     f9c:	e0 92 b2 01 	sts	0x01B2, r14
     fa0:	0e 94 0d 06 	call	0xc1a	; 0xc1a <Send_To_Bluetooth>
     fa4:	84 cf       	rjmp	.-248    	; 0xeae <main+0x8c>
     fa6:	80 91 b7 01 	lds	r24, 0x01B7
     faa:	88 32       	cpi	r24, 0x28	; 40
     fac:	09 f0       	breq	.+2      	; 0xfb0 <main+0x18e>
     fae:	7a c0       	rjmp	.+244    	; 0x10a4 <main+0x282>
     fb0:	80 91 d1 01 	lds	r24, 0x01D1
     fb4:	81 11       	cpse	r24, r1
     fb6:	02 c0       	rjmp	.+4      	; 0xfbc <main+0x19a>
     fb8:	0e 94 2e 04 	call	0x85c	; 0x85c <Incializa_Manual>
     fbc:	80 91 b9 01 	lds	r24, 0x01B9
     fc0:	89 32       	cpi	r24, 0x29	; 41
     fc2:	51 f0       	breq	.+20     	; 0xfd8 <main+0x1b6>
     fc4:	80 91 b9 01 	lds	r24, 0x01B9
     fc8:	0e 94 d2 02 	call	0x5a4	; 0x5a4 <Motores>
     fcc:	87 e5       	ldi	r24, 0x57	; 87
     fce:	92 e0       	ldi	r25, 0x02	; 2
     fd0:	01 97       	sbiw	r24, 0x01	; 1
     fd2:	f1 f7       	brne	.-4      	; 0xfd0 <main+0x1ae>
     fd4:	00 c0       	rjmp	.+0      	; 0xfd6 <main+0x1b4>
     fd6:	00 00       	nop
     fd8:	80 91 c4 01 	lds	r24, 0x01C4
     fdc:	90 91 c5 01 	lds	r25, 0x01C5
     fe0:	89 2b       	or	r24, r25
     fe2:	41 f4       	brne	.+16     	; 0xff4 <main+0x1d2>
     fe4:	0e 94 da 05 	call	0xbb4	; 0xbb4 <Read_Battery>
     fe8:	d0 92 c5 01 	sts	0x01C5, r13
     fec:	c0 92 c4 01 	sts	0x01C4, r12
     ff0:	0e 94 e1 06 	call	0xdc2	; 0xdc2 <Send_Battery_Bluetooth>
     ff4:	80 91 b2 01 	lds	r24, 0x01B2
     ff8:	90 91 b3 01 	lds	r25, 0x01B3
     ffc:	89 2b       	or	r24, r25
     ffe:	31 f4       	brne	.+12     	; 0x100c <main+0x1ea>
    1000:	0e 94 9c 04 	call	0x938	; 0x938 <lcd_print_lcd>
    1004:	f0 92 b3 01 	sts	0x01B3, r15
    1008:	e0 92 b2 01 	sts	0x01B2, r14
    100c:	80 91 c6 01 	lds	r24, 0x01C6
    1010:	90 91 c7 01 	lds	r25, 0x01C7
    1014:	89 2b       	or	r24, r25
    1016:	09 f0       	breq	.+2      	; 0x101a <main+0x1f8>
    1018:	4a cf       	rjmp	.-364    	; 0xeae <main+0x8c>
    101a:	81 e0       	ldi	r24, 0x01	; 1
    101c:	0e 94 b5 00 	call	0x16a	; 0x16a <lcdCommand>
    1020:	61 e0       	ldi	r22, 0x01	; 1
    1022:	81 e0       	ldi	r24, 0x01	; 1
    1024:	0e 94 c9 00 	call	0x192	; 0x192 <lcd_gotoxy>
    1028:	df 93       	push	r29
    102a:	cf 93       	push	r28
    102c:	0e 94 b5 09 	call	0x136a	; 0x136a <printf>
    1030:	62 e0       	ldi	r22, 0x02	; 2
    1032:	85 e0       	ldi	r24, 0x05	; 5
    1034:	0e 94 c9 00 	call	0x192	; 0x192 <lcd_gotoxy>
    1038:	8f e8       	ldi	r24, 0x8F	; 143
    103a:	91 e0       	ldi	r25, 0x01	; 1
    103c:	0e 94 8e 00 	call	0x11c	; 0x11c <lcd_print>
    1040:	63 e0       	ldi	r22, 0x03	; 3
    1042:	81 e0       	ldi	r24, 0x01	; 1
    1044:	0e 94 c9 00 	call	0x192	; 0x192 <lcd_gotoxy>
    1048:	df 93       	push	r29
    104a:	cf 93       	push	r28
    104c:	0e 94 b5 09 	call	0x136a	; 0x136a <printf>
    1050:	2f ef       	ldi	r18, 0xFF	; 255
    1052:	86 e7       	ldi	r24, 0x76	; 118
    1054:	91 e0       	ldi	r25, 0x01	; 1
    1056:	21 50       	subi	r18, 0x01	; 1
    1058:	80 40       	sbci	r24, 0x00	; 0
    105a:	90 40       	sbci	r25, 0x00	; 0
    105c:	e1 f7       	brne	.-8      	; 0x1056 <main+0x234>
    105e:	00 c0       	rjmp	.+0      	; 0x1060 <main+0x23e>
    1060:	00 00       	nop
    1062:	10 93 cb 01 	sts	0x01CB, r17
    1066:	00 93 ca 01 	sts	0x01CA, r16
    106a:	0f 90       	pop	r0
    106c:	0f 90       	pop	r0
    106e:	0f 90       	pop	r0
    1070:	0f 90       	pop	r0
    1072:	80 91 ca 01 	lds	r24, 0x01CA
    1076:	90 91 cb 01 	lds	r25, 0x01CB
    107a:	89 2b       	or	r24, r25
    107c:	39 f4       	brne	.+14     	; 0x108c <main+0x26a>
    107e:	8b b1       	in	r24, 0x0b	; 11
    1080:	88 25       	eor	r24, r8
    1082:	8b b9       	out	0x0b, r24	; 11
    1084:	10 93 cb 01 	sts	0x01CB, r17
    1088:	00 93 ca 01 	sts	0x01CA, r16
    108c:	8d e1       	ldi	r24, 0x1D	; 29
    108e:	0e 94 d2 02 	call	0x5a4	; 0x5a4 <Motores>
    1092:	80 91 c6 01 	lds	r24, 0x01C6
    1096:	90 91 c7 01 	lds	r25, 0x01C7
    109a:	89 2b       	or	r24, r25
    109c:	51 f3       	breq	.-44     	; 0x1072 <main+0x250>
    109e:	10 92 d1 01 	sts	0x01D1, r1
    10a2:	05 cf       	rjmp	.-502    	; 0xeae <main+0x8c>
    10a4:	80 91 b7 01 	lds	r24, 0x01B7
    10a8:	8a 32       	cpi	r24, 0x2A	; 42
    10aa:	09 f0       	breq	.+2      	; 0x10ae <main+0x28c>
    10ac:	00 cf       	rjmp	.-512    	; 0xeae <main+0x8c>
    10ae:	c1 e0       	ldi	r28, 0x01	; 1
    10b0:	0e 94 a9 02 	call	0x552	; 0x552 <Sensores>
    10b4:	80 91 cc 01 	lds	r24, 0x01CC
    10b8:	81 11       	cpse	r24, r1
    10ba:	03 c0       	rjmp	.+6      	; 0x10c2 <main+0x2a0>
    10bc:	0e 94 58 03 	call	0x6b0	; 0x6b0 <Calculo>
    10c0:	f7 cf       	rjmp	.-18     	; 0x10b0 <main+0x28e>
    10c2:	80 91 b0 01 	lds	r24, 0x01B0
    10c6:	90 91 b1 01 	lds	r25, 0x01B1
    10ca:	89 2b       	or	r24, r25
    10cc:	89 f7       	brne	.-30     	; 0x10b0 <main+0x28e>
    10ce:	8d e1       	ldi	r24, 0x1D	; 29
    10d0:	0e 94 d2 02 	call	0x5a4	; 0x5a4 <Motores>
    10d4:	85 b1       	in	r24, 0x05	; 5
    10d6:	8c 27       	eor	r24, r28
    10d8:	85 b9       	out	0x05, r24	; 5
    10da:	80 91 bf 01 	lds	r24, 0x01BF
    10de:	88 23       	and	r24, r24
    10e0:	81 f0       	breq	.+32     	; 0x1102 <main+0x2e0>
    10e2:	80 91 c0 01 	lds	r24, 0x01C0
    10e6:	88 23       	and	r24, r24
    10e8:	61 f0       	breq	.+24     	; 0x1102 <main+0x2e0>
    10ea:	80 91 c1 01 	lds	r24, 0x01C1
    10ee:	88 23       	and	r24, r24
    10f0:	41 f0       	breq	.+16     	; 0x1102 <main+0x2e0>
    10f2:	80 91 c2 01 	lds	r24, 0x01C2
    10f6:	88 23       	and	r24, r24
    10f8:	21 f0       	breq	.+8      	; 0x1102 <main+0x2e0>
    10fa:	80 91 c3 01 	lds	r24, 0x01C3
    10fe:	81 11       	cpse	r24, r1
    1100:	d7 cf       	rjmp	.-82     	; 0x10b0 <main+0x28e>
    1102:	10 92 cc 01 	sts	0x01CC, r1
    1106:	28 98       	cbi	0x05, 0	; 5
    1108:	d3 cf       	rjmp	.-90     	; 0x10b0 <main+0x28e>

0000110a <__tablejump2__>:
    110a:	ee 0f       	add	r30, r30
    110c:	ff 1f       	adc	r31, r31
    110e:	05 90       	lpm	r0, Z+
    1110:	f4 91       	lpm	r31, Z
    1112:	e0 2d       	mov	r30, r0
    1114:	09 94       	ijmp

00001116 <__fixunssfsi>:
    1116:	0e 94 ff 08 	call	0x11fe	; 0x11fe <__fp_splitA>
    111a:	88 f0       	brcs	.+34     	; 0x113e <__fixunssfsi+0x28>
    111c:	9f 57       	subi	r25, 0x7F	; 127
    111e:	98 f0       	brcs	.+38     	; 0x1146 <__fixunssfsi+0x30>
    1120:	b9 2f       	mov	r27, r25
    1122:	99 27       	eor	r25, r25
    1124:	b7 51       	subi	r27, 0x17	; 23
    1126:	b0 f0       	brcs	.+44     	; 0x1154 <__fixunssfsi+0x3e>
    1128:	e1 f0       	breq	.+56     	; 0x1162 <__fixunssfsi+0x4c>
    112a:	66 0f       	add	r22, r22
    112c:	77 1f       	adc	r23, r23
    112e:	88 1f       	adc	r24, r24
    1130:	99 1f       	adc	r25, r25
    1132:	1a f0       	brmi	.+6      	; 0x113a <__fixunssfsi+0x24>
    1134:	ba 95       	dec	r27
    1136:	c9 f7       	brne	.-14     	; 0x112a <__fixunssfsi+0x14>
    1138:	14 c0       	rjmp	.+40     	; 0x1162 <__fixunssfsi+0x4c>
    113a:	b1 30       	cpi	r27, 0x01	; 1
    113c:	91 f0       	breq	.+36     	; 0x1162 <__fixunssfsi+0x4c>
    113e:	0e 94 19 09 	call	0x1232	; 0x1232 <__fp_zero>
    1142:	b1 e0       	ldi	r27, 0x01	; 1
    1144:	08 95       	ret
    1146:	0c 94 19 09 	jmp	0x1232	; 0x1232 <__fp_zero>
    114a:	67 2f       	mov	r22, r23
    114c:	78 2f       	mov	r23, r24
    114e:	88 27       	eor	r24, r24
    1150:	b8 5f       	subi	r27, 0xF8	; 248
    1152:	39 f0       	breq	.+14     	; 0x1162 <__fixunssfsi+0x4c>
    1154:	b9 3f       	cpi	r27, 0xF9	; 249
    1156:	cc f3       	brlt	.-14     	; 0x114a <__fixunssfsi+0x34>
    1158:	86 95       	lsr	r24
    115a:	77 95       	ror	r23
    115c:	67 95       	ror	r22
    115e:	b3 95       	inc	r27
    1160:	d9 f7       	brne	.-10     	; 0x1158 <__fixunssfsi+0x42>
    1162:	3e f4       	brtc	.+14     	; 0x1172 <__fixunssfsi+0x5c>
    1164:	90 95       	com	r25
    1166:	80 95       	com	r24
    1168:	70 95       	com	r23
    116a:	61 95       	neg	r22
    116c:	7f 4f       	sbci	r23, 0xFF	; 255
    116e:	8f 4f       	sbci	r24, 0xFF	; 255
    1170:	9f 4f       	sbci	r25, 0xFF	; 255
    1172:	08 95       	ret

00001174 <__floatunsisf>:
    1174:	e8 94       	clt
    1176:	09 c0       	rjmp	.+18     	; 0x118a <__floatsisf+0x12>

00001178 <__floatsisf>:
    1178:	97 fb       	bst	r25, 7
    117a:	3e f4       	brtc	.+14     	; 0x118a <__floatsisf+0x12>
    117c:	90 95       	com	r25
    117e:	80 95       	com	r24
    1180:	70 95       	com	r23
    1182:	61 95       	neg	r22
    1184:	7f 4f       	sbci	r23, 0xFF	; 255
    1186:	8f 4f       	sbci	r24, 0xFF	; 255
    1188:	9f 4f       	sbci	r25, 0xFF	; 255
    118a:	99 23       	and	r25, r25
    118c:	a9 f0       	breq	.+42     	; 0x11b8 <__floatsisf+0x40>
    118e:	f9 2f       	mov	r31, r25
    1190:	96 e9       	ldi	r25, 0x96	; 150
    1192:	bb 27       	eor	r27, r27
    1194:	93 95       	inc	r25
    1196:	f6 95       	lsr	r31
    1198:	87 95       	ror	r24
    119a:	77 95       	ror	r23
    119c:	67 95       	ror	r22
    119e:	b7 95       	ror	r27
    11a0:	f1 11       	cpse	r31, r1
    11a2:	f8 cf       	rjmp	.-16     	; 0x1194 <__floatsisf+0x1c>
    11a4:	fa f4       	brpl	.+62     	; 0x11e4 <__floatsisf+0x6c>
    11a6:	bb 0f       	add	r27, r27
    11a8:	11 f4       	brne	.+4      	; 0x11ae <__floatsisf+0x36>
    11aa:	60 ff       	sbrs	r22, 0
    11ac:	1b c0       	rjmp	.+54     	; 0x11e4 <__floatsisf+0x6c>
    11ae:	6f 5f       	subi	r22, 0xFF	; 255
    11b0:	7f 4f       	sbci	r23, 0xFF	; 255
    11b2:	8f 4f       	sbci	r24, 0xFF	; 255
    11b4:	9f 4f       	sbci	r25, 0xFF	; 255
    11b6:	16 c0       	rjmp	.+44     	; 0x11e4 <__floatsisf+0x6c>
    11b8:	88 23       	and	r24, r24
    11ba:	11 f0       	breq	.+4      	; 0x11c0 <__floatsisf+0x48>
    11bc:	96 e9       	ldi	r25, 0x96	; 150
    11be:	11 c0       	rjmp	.+34     	; 0x11e2 <__floatsisf+0x6a>
    11c0:	77 23       	and	r23, r23
    11c2:	21 f0       	breq	.+8      	; 0x11cc <__floatsisf+0x54>
    11c4:	9e e8       	ldi	r25, 0x8E	; 142
    11c6:	87 2f       	mov	r24, r23
    11c8:	76 2f       	mov	r23, r22
    11ca:	05 c0       	rjmp	.+10     	; 0x11d6 <__floatsisf+0x5e>
    11cc:	66 23       	and	r22, r22
    11ce:	71 f0       	breq	.+28     	; 0x11ec <__floatsisf+0x74>
    11d0:	96 e8       	ldi	r25, 0x86	; 134
    11d2:	86 2f       	mov	r24, r22
    11d4:	70 e0       	ldi	r23, 0x00	; 0
    11d6:	60 e0       	ldi	r22, 0x00	; 0
    11d8:	2a f0       	brmi	.+10     	; 0x11e4 <__floatsisf+0x6c>
    11da:	9a 95       	dec	r25
    11dc:	66 0f       	add	r22, r22
    11de:	77 1f       	adc	r23, r23
    11e0:	88 1f       	adc	r24, r24
    11e2:	da f7       	brpl	.-10     	; 0x11da <__floatsisf+0x62>
    11e4:	88 0f       	add	r24, r24
    11e6:	96 95       	lsr	r25
    11e8:	87 95       	ror	r24
    11ea:	97 f9       	bld	r25, 7
    11ec:	08 95       	ret

000011ee <__fp_split3>:
    11ee:	57 fd       	sbrc	r21, 7
    11f0:	90 58       	subi	r25, 0x80	; 128
    11f2:	44 0f       	add	r20, r20
    11f4:	55 1f       	adc	r21, r21
    11f6:	59 f0       	breq	.+22     	; 0x120e <__fp_splitA+0x10>
    11f8:	5f 3f       	cpi	r21, 0xFF	; 255
    11fa:	71 f0       	breq	.+28     	; 0x1218 <__fp_splitA+0x1a>
    11fc:	47 95       	ror	r20

000011fe <__fp_splitA>:
    11fe:	88 0f       	add	r24, r24
    1200:	97 fb       	bst	r25, 7
    1202:	99 1f       	adc	r25, r25
    1204:	61 f0       	breq	.+24     	; 0x121e <__fp_splitA+0x20>
    1206:	9f 3f       	cpi	r25, 0xFF	; 255
    1208:	79 f0       	breq	.+30     	; 0x1228 <__fp_splitA+0x2a>
    120a:	87 95       	ror	r24
    120c:	08 95       	ret
    120e:	12 16       	cp	r1, r18
    1210:	13 06       	cpc	r1, r19
    1212:	14 06       	cpc	r1, r20
    1214:	55 1f       	adc	r21, r21
    1216:	f2 cf       	rjmp	.-28     	; 0x11fc <__fp_split3+0xe>
    1218:	46 95       	lsr	r20
    121a:	f1 df       	rcall	.-30     	; 0x11fe <__fp_splitA>
    121c:	08 c0       	rjmp	.+16     	; 0x122e <__fp_splitA+0x30>
    121e:	16 16       	cp	r1, r22
    1220:	17 06       	cpc	r1, r23
    1222:	18 06       	cpc	r1, r24
    1224:	99 1f       	adc	r25, r25
    1226:	f1 cf       	rjmp	.-30     	; 0x120a <__fp_splitA+0xc>
    1228:	86 95       	lsr	r24
    122a:	71 05       	cpc	r23, r1
    122c:	61 05       	cpc	r22, r1
    122e:	08 94       	sec
    1230:	08 95       	ret

00001232 <__fp_zero>:
    1232:	e8 94       	clt

00001234 <__fp_szero>:
    1234:	bb 27       	eor	r27, r27
    1236:	66 27       	eor	r22, r22
    1238:	77 27       	eor	r23, r23
    123a:	cb 01       	movw	r24, r22
    123c:	97 f9       	bld	r25, 7
    123e:	08 95       	ret

00001240 <__mulsf3>:
    1240:	0e 94 33 09 	call	0x1266	; 0x1266 <__mulsf3x>
    1244:	0c 94 a4 09 	jmp	0x1348	; 0x1348 <__fp_round>
    1248:	0e 94 96 09 	call	0x132c	; 0x132c <__fp_pscA>
    124c:	38 f0       	brcs	.+14     	; 0x125c <__mulsf3+0x1c>
    124e:	0e 94 9d 09 	call	0x133a	; 0x133a <__fp_pscB>
    1252:	20 f0       	brcs	.+8      	; 0x125c <__mulsf3+0x1c>
    1254:	95 23       	and	r25, r21
    1256:	11 f0       	breq	.+4      	; 0x125c <__mulsf3+0x1c>
    1258:	0c 94 8d 09 	jmp	0x131a	; 0x131a <__fp_inf>
    125c:	0c 94 93 09 	jmp	0x1326	; 0x1326 <__fp_nan>
    1260:	11 24       	eor	r1, r1
    1262:	0c 94 1a 09 	jmp	0x1234	; 0x1234 <__fp_szero>

00001266 <__mulsf3x>:
    1266:	0e 94 f7 08 	call	0x11ee	; 0x11ee <__fp_split3>
    126a:	70 f3       	brcs	.-36     	; 0x1248 <__mulsf3+0x8>

0000126c <__mulsf3_pse>:
    126c:	95 9f       	mul	r25, r21
    126e:	c1 f3       	breq	.-16     	; 0x1260 <__mulsf3+0x20>
    1270:	95 0f       	add	r25, r21
    1272:	50 e0       	ldi	r21, 0x00	; 0
    1274:	55 1f       	adc	r21, r21
    1276:	62 9f       	mul	r22, r18
    1278:	f0 01       	movw	r30, r0
    127a:	72 9f       	mul	r23, r18
    127c:	bb 27       	eor	r27, r27
    127e:	f0 0d       	add	r31, r0
    1280:	b1 1d       	adc	r27, r1
    1282:	63 9f       	mul	r22, r19
    1284:	aa 27       	eor	r26, r26
    1286:	f0 0d       	add	r31, r0
    1288:	b1 1d       	adc	r27, r1
    128a:	aa 1f       	adc	r26, r26
    128c:	64 9f       	mul	r22, r20
    128e:	66 27       	eor	r22, r22
    1290:	b0 0d       	add	r27, r0
    1292:	a1 1d       	adc	r26, r1
    1294:	66 1f       	adc	r22, r22
    1296:	82 9f       	mul	r24, r18
    1298:	22 27       	eor	r18, r18
    129a:	b0 0d       	add	r27, r0
    129c:	a1 1d       	adc	r26, r1
    129e:	62 1f       	adc	r22, r18
    12a0:	73 9f       	mul	r23, r19
    12a2:	b0 0d       	add	r27, r0
    12a4:	a1 1d       	adc	r26, r1
    12a6:	62 1f       	adc	r22, r18
    12a8:	83 9f       	mul	r24, r19
    12aa:	a0 0d       	add	r26, r0
    12ac:	61 1d       	adc	r22, r1
    12ae:	22 1f       	adc	r18, r18
    12b0:	74 9f       	mul	r23, r20
    12b2:	33 27       	eor	r19, r19
    12b4:	a0 0d       	add	r26, r0
    12b6:	61 1d       	adc	r22, r1
    12b8:	23 1f       	adc	r18, r19
    12ba:	84 9f       	mul	r24, r20
    12bc:	60 0d       	add	r22, r0
    12be:	21 1d       	adc	r18, r1
    12c0:	82 2f       	mov	r24, r18
    12c2:	76 2f       	mov	r23, r22
    12c4:	6a 2f       	mov	r22, r26
    12c6:	11 24       	eor	r1, r1
    12c8:	9f 57       	subi	r25, 0x7F	; 127
    12ca:	50 40       	sbci	r21, 0x00	; 0
    12cc:	9a f0       	brmi	.+38     	; 0x12f4 <__mulsf3_pse+0x88>
    12ce:	f1 f0       	breq	.+60     	; 0x130c <__mulsf3_pse+0xa0>
    12d0:	88 23       	and	r24, r24
    12d2:	4a f0       	brmi	.+18     	; 0x12e6 <__mulsf3_pse+0x7a>
    12d4:	ee 0f       	add	r30, r30
    12d6:	ff 1f       	adc	r31, r31
    12d8:	bb 1f       	adc	r27, r27
    12da:	66 1f       	adc	r22, r22
    12dc:	77 1f       	adc	r23, r23
    12de:	88 1f       	adc	r24, r24
    12e0:	91 50       	subi	r25, 0x01	; 1
    12e2:	50 40       	sbci	r21, 0x00	; 0
    12e4:	a9 f7       	brne	.-22     	; 0x12d0 <__mulsf3_pse+0x64>
    12e6:	9e 3f       	cpi	r25, 0xFE	; 254
    12e8:	51 05       	cpc	r21, r1
    12ea:	80 f0       	brcs	.+32     	; 0x130c <__mulsf3_pse+0xa0>
    12ec:	0c 94 8d 09 	jmp	0x131a	; 0x131a <__fp_inf>
    12f0:	0c 94 1a 09 	jmp	0x1234	; 0x1234 <__fp_szero>
    12f4:	5f 3f       	cpi	r21, 0xFF	; 255
    12f6:	e4 f3       	brlt	.-8      	; 0x12f0 <__mulsf3_pse+0x84>
    12f8:	98 3e       	cpi	r25, 0xE8	; 232
    12fa:	d4 f3       	brlt	.-12     	; 0x12f0 <__mulsf3_pse+0x84>
    12fc:	86 95       	lsr	r24
    12fe:	77 95       	ror	r23
    1300:	67 95       	ror	r22
    1302:	b7 95       	ror	r27
    1304:	f7 95       	ror	r31
    1306:	e7 95       	ror	r30
    1308:	9f 5f       	subi	r25, 0xFF	; 255
    130a:	c1 f7       	brne	.-16     	; 0x12fc <__mulsf3_pse+0x90>
    130c:	fe 2b       	or	r31, r30
    130e:	88 0f       	add	r24, r24
    1310:	91 1d       	adc	r25, r1
    1312:	96 95       	lsr	r25
    1314:	87 95       	ror	r24
    1316:	97 f9       	bld	r25, 7
    1318:	08 95       	ret

0000131a <__fp_inf>:
    131a:	97 f9       	bld	r25, 7
    131c:	9f 67       	ori	r25, 0x7F	; 127
    131e:	80 e8       	ldi	r24, 0x80	; 128
    1320:	70 e0       	ldi	r23, 0x00	; 0
    1322:	60 e0       	ldi	r22, 0x00	; 0
    1324:	08 95       	ret

00001326 <__fp_nan>:
    1326:	9f ef       	ldi	r25, 0xFF	; 255
    1328:	80 ec       	ldi	r24, 0xC0	; 192
    132a:	08 95       	ret

0000132c <__fp_pscA>:
    132c:	00 24       	eor	r0, r0
    132e:	0a 94       	dec	r0
    1330:	16 16       	cp	r1, r22
    1332:	17 06       	cpc	r1, r23
    1334:	18 06       	cpc	r1, r24
    1336:	09 06       	cpc	r0, r25
    1338:	08 95       	ret

0000133a <__fp_pscB>:
    133a:	00 24       	eor	r0, r0
    133c:	0a 94       	dec	r0
    133e:	12 16       	cp	r1, r18
    1340:	13 06       	cpc	r1, r19
    1342:	14 06       	cpc	r1, r20
    1344:	05 06       	cpc	r0, r21
    1346:	08 95       	ret

00001348 <__fp_round>:
    1348:	09 2e       	mov	r0, r25
    134a:	03 94       	inc	r0
    134c:	00 0c       	add	r0, r0
    134e:	11 f4       	brne	.+4      	; 0x1354 <__fp_round+0xc>
    1350:	88 23       	and	r24, r24
    1352:	52 f0       	brmi	.+20     	; 0x1368 <__fp_round+0x20>
    1354:	bb 0f       	add	r27, r27
    1356:	40 f4       	brcc	.+16     	; 0x1368 <__fp_round+0x20>
    1358:	bf 2b       	or	r27, r31
    135a:	11 f4       	brne	.+4      	; 0x1360 <__fp_round+0x18>
    135c:	60 ff       	sbrs	r22, 0
    135e:	04 c0       	rjmp	.+8      	; 0x1368 <__fp_round+0x20>
    1360:	6f 5f       	subi	r22, 0xFF	; 255
    1362:	7f 4f       	sbci	r23, 0xFF	; 255
    1364:	8f 4f       	sbci	r24, 0xFF	; 255
    1366:	9f 4f       	sbci	r25, 0xFF	; 255
    1368:	08 95       	ret

0000136a <printf>:
    136a:	a0 e0       	ldi	r26, 0x00	; 0
    136c:	b0 e0       	ldi	r27, 0x00	; 0
    136e:	eb eb       	ldi	r30, 0xBB	; 187
    1370:	f9 e0       	ldi	r31, 0x09	; 9
    1372:	0c 94 7c 0c 	jmp	0x18f8	; 0x18f8 <__prologue_saves__+0x20>
    1376:	ae 01       	movw	r20, r28
    1378:	4b 5f       	subi	r20, 0xFB	; 251
    137a:	5f 4f       	sbci	r21, 0xFF	; 255
    137c:	fa 01       	movw	r30, r20
    137e:	61 91       	ld	r22, Z+
    1380:	71 91       	ld	r23, Z+
    1382:	af 01       	movw	r20, r30
    1384:	80 91 d8 01 	lds	r24, 0x01D8
    1388:	90 91 d9 01 	lds	r25, 0x01D9
    138c:	0e 94 ee 09 	call	0x13dc	; 0x13dc <vfprintf>
    1390:	e2 e0       	ldi	r30, 0x02	; 2
    1392:	0c 94 98 0c 	jmp	0x1930	; 0x1930 <__epilogue_restores__+0x20>

00001396 <sprintf>:
    1396:	ae e0       	ldi	r26, 0x0E	; 14
    1398:	b0 e0       	ldi	r27, 0x00	; 0
    139a:	e1 ed       	ldi	r30, 0xD1	; 209
    139c:	f9 e0       	ldi	r31, 0x09	; 9
    139e:	0c 94 7a 0c 	jmp	0x18f4	; 0x18f4 <__prologue_saves__+0x1c>
    13a2:	0d 89       	ldd	r16, Y+21	; 0x15
    13a4:	1e 89       	ldd	r17, Y+22	; 0x16
    13a6:	86 e0       	ldi	r24, 0x06	; 6
    13a8:	8c 83       	std	Y+4, r24	; 0x04
    13aa:	1a 83       	std	Y+2, r17	; 0x02
    13ac:	09 83       	std	Y+1, r16	; 0x01
    13ae:	8f ef       	ldi	r24, 0xFF	; 255
    13b0:	9f e7       	ldi	r25, 0x7F	; 127
    13b2:	9e 83       	std	Y+6, r25	; 0x06
    13b4:	8d 83       	std	Y+5, r24	; 0x05
    13b6:	ae 01       	movw	r20, r28
    13b8:	47 5e       	subi	r20, 0xE7	; 231
    13ba:	5f 4f       	sbci	r21, 0xFF	; 255
    13bc:	6f 89       	ldd	r22, Y+23	; 0x17
    13be:	78 8d       	ldd	r23, Y+24	; 0x18
    13c0:	ce 01       	movw	r24, r28
    13c2:	01 96       	adiw	r24, 0x01	; 1
    13c4:	0e 94 ee 09 	call	0x13dc	; 0x13dc <vfprintf>
    13c8:	2f 81       	ldd	r18, Y+7	; 0x07
    13ca:	38 85       	ldd	r19, Y+8	; 0x08
    13cc:	f8 01       	movw	r30, r16
    13ce:	e2 0f       	add	r30, r18
    13d0:	f3 1f       	adc	r31, r19
    13d2:	10 82       	st	Z, r1
    13d4:	2e 96       	adiw	r28, 0x0e	; 14
    13d6:	e4 e0       	ldi	r30, 0x04	; 4
    13d8:	0c 94 96 0c 	jmp	0x192c	; 0x192c <__epilogue_restores__+0x1c>

000013dc <vfprintf>:
    13dc:	ac e0       	ldi	r26, 0x0C	; 12
    13de:	b0 e0       	ldi	r27, 0x00	; 0
    13e0:	e4 ef       	ldi	r30, 0xF4	; 244
    13e2:	f9 e0       	ldi	r31, 0x09	; 9
    13e4:	0c 94 6c 0c 	jmp	0x18d8	; 0x18d8 <__prologue_saves__>
    13e8:	7c 01       	movw	r14, r24
    13ea:	6b 01       	movw	r12, r22
    13ec:	8a 01       	movw	r16, r20
    13ee:	fc 01       	movw	r30, r24
    13f0:	17 82       	std	Z+7, r1	; 0x07
    13f2:	16 82       	std	Z+6, r1	; 0x06
    13f4:	83 81       	ldd	r24, Z+3	; 0x03
    13f6:	81 ff       	sbrs	r24, 1
    13f8:	bd c1       	rjmp	.+890    	; 0x1774 <vfprintf+0x398>
    13fa:	ce 01       	movw	r24, r28
    13fc:	01 96       	adiw	r24, 0x01	; 1
    13fe:	4c 01       	movw	r8, r24
    1400:	f7 01       	movw	r30, r14
    1402:	93 81       	ldd	r25, Z+3	; 0x03
    1404:	f6 01       	movw	r30, r12
    1406:	93 fd       	sbrc	r25, 3
    1408:	85 91       	lpm	r24, Z+
    140a:	93 ff       	sbrs	r25, 3
    140c:	81 91       	ld	r24, Z+
    140e:	6f 01       	movw	r12, r30
    1410:	88 23       	and	r24, r24
    1412:	09 f4       	brne	.+2      	; 0x1416 <vfprintf+0x3a>
    1414:	ab c1       	rjmp	.+854    	; 0x176c <vfprintf+0x390>
    1416:	85 32       	cpi	r24, 0x25	; 37
    1418:	39 f4       	brne	.+14     	; 0x1428 <vfprintf+0x4c>
    141a:	93 fd       	sbrc	r25, 3
    141c:	85 91       	lpm	r24, Z+
    141e:	93 ff       	sbrs	r25, 3
    1420:	81 91       	ld	r24, Z+
    1422:	6f 01       	movw	r12, r30
    1424:	85 32       	cpi	r24, 0x25	; 37
    1426:	29 f4       	brne	.+10     	; 0x1432 <vfprintf+0x56>
    1428:	b7 01       	movw	r22, r14
    142a:	90 e0       	ldi	r25, 0x00	; 0
    142c:	0e 94 d6 0b 	call	0x17ac	; 0x17ac <fputc>
    1430:	e7 cf       	rjmp	.-50     	; 0x1400 <vfprintf+0x24>
    1432:	51 2c       	mov	r5, r1
    1434:	31 2c       	mov	r3, r1
    1436:	20 e0       	ldi	r18, 0x00	; 0
    1438:	20 32       	cpi	r18, 0x20	; 32
    143a:	a0 f4       	brcc	.+40     	; 0x1464 <vfprintf+0x88>
    143c:	8b 32       	cpi	r24, 0x2B	; 43
    143e:	69 f0       	breq	.+26     	; 0x145a <vfprintf+0x7e>
    1440:	30 f4       	brcc	.+12     	; 0x144e <vfprintf+0x72>
    1442:	80 32       	cpi	r24, 0x20	; 32
    1444:	59 f0       	breq	.+22     	; 0x145c <vfprintf+0x80>
    1446:	83 32       	cpi	r24, 0x23	; 35
    1448:	69 f4       	brne	.+26     	; 0x1464 <vfprintf+0x88>
    144a:	20 61       	ori	r18, 0x10	; 16
    144c:	2c c0       	rjmp	.+88     	; 0x14a6 <vfprintf+0xca>
    144e:	8d 32       	cpi	r24, 0x2D	; 45
    1450:	39 f0       	breq	.+14     	; 0x1460 <vfprintf+0x84>
    1452:	80 33       	cpi	r24, 0x30	; 48
    1454:	39 f4       	brne	.+14     	; 0x1464 <vfprintf+0x88>
    1456:	21 60       	ori	r18, 0x01	; 1
    1458:	26 c0       	rjmp	.+76     	; 0x14a6 <vfprintf+0xca>
    145a:	22 60       	ori	r18, 0x02	; 2
    145c:	24 60       	ori	r18, 0x04	; 4
    145e:	23 c0       	rjmp	.+70     	; 0x14a6 <vfprintf+0xca>
    1460:	28 60       	ori	r18, 0x08	; 8
    1462:	21 c0       	rjmp	.+66     	; 0x14a6 <vfprintf+0xca>
    1464:	27 fd       	sbrc	r18, 7
    1466:	27 c0       	rjmp	.+78     	; 0x14b6 <vfprintf+0xda>
    1468:	30 ed       	ldi	r19, 0xD0	; 208
    146a:	38 0f       	add	r19, r24
    146c:	3a 30       	cpi	r19, 0x0A	; 10
    146e:	78 f4       	brcc	.+30     	; 0x148e <vfprintf+0xb2>
    1470:	26 ff       	sbrs	r18, 6
    1472:	06 c0       	rjmp	.+12     	; 0x1480 <vfprintf+0xa4>
    1474:	fa e0       	ldi	r31, 0x0A	; 10
    1476:	5f 9e       	mul	r5, r31
    1478:	30 0d       	add	r19, r0
    147a:	11 24       	eor	r1, r1
    147c:	53 2e       	mov	r5, r19
    147e:	13 c0       	rjmp	.+38     	; 0x14a6 <vfprintf+0xca>
    1480:	8a e0       	ldi	r24, 0x0A	; 10
    1482:	38 9e       	mul	r3, r24
    1484:	30 0d       	add	r19, r0
    1486:	11 24       	eor	r1, r1
    1488:	33 2e       	mov	r3, r19
    148a:	20 62       	ori	r18, 0x20	; 32
    148c:	0c c0       	rjmp	.+24     	; 0x14a6 <vfprintf+0xca>
    148e:	8e 32       	cpi	r24, 0x2E	; 46
    1490:	21 f4       	brne	.+8      	; 0x149a <vfprintf+0xbe>
    1492:	26 fd       	sbrc	r18, 6
    1494:	6b c1       	rjmp	.+726    	; 0x176c <vfprintf+0x390>
    1496:	20 64       	ori	r18, 0x40	; 64
    1498:	06 c0       	rjmp	.+12     	; 0x14a6 <vfprintf+0xca>
    149a:	8c 36       	cpi	r24, 0x6C	; 108
    149c:	11 f4       	brne	.+4      	; 0x14a2 <vfprintf+0xc6>
    149e:	20 68       	ori	r18, 0x80	; 128
    14a0:	02 c0       	rjmp	.+4      	; 0x14a6 <vfprintf+0xca>
    14a2:	88 36       	cpi	r24, 0x68	; 104
    14a4:	41 f4       	brne	.+16     	; 0x14b6 <vfprintf+0xda>
    14a6:	f6 01       	movw	r30, r12
    14a8:	93 fd       	sbrc	r25, 3
    14aa:	85 91       	lpm	r24, Z+
    14ac:	93 ff       	sbrs	r25, 3
    14ae:	81 91       	ld	r24, Z+
    14b0:	6f 01       	movw	r12, r30
    14b2:	81 11       	cpse	r24, r1
    14b4:	c1 cf       	rjmp	.-126    	; 0x1438 <vfprintf+0x5c>
    14b6:	98 2f       	mov	r25, r24
    14b8:	9f 7d       	andi	r25, 0xDF	; 223
    14ba:	95 54       	subi	r25, 0x45	; 69
    14bc:	93 30       	cpi	r25, 0x03	; 3
    14be:	28 f4       	brcc	.+10     	; 0x14ca <vfprintf+0xee>
    14c0:	0c 5f       	subi	r16, 0xFC	; 252
    14c2:	1f 4f       	sbci	r17, 0xFF	; 255
    14c4:	ff e3       	ldi	r31, 0x3F	; 63
    14c6:	f9 83       	std	Y+1, r31	; 0x01
    14c8:	0d c0       	rjmp	.+26     	; 0x14e4 <vfprintf+0x108>
    14ca:	83 36       	cpi	r24, 0x63	; 99
    14cc:	31 f0       	breq	.+12     	; 0x14da <vfprintf+0xfe>
    14ce:	83 37       	cpi	r24, 0x73	; 115
    14d0:	71 f0       	breq	.+28     	; 0x14ee <vfprintf+0x112>
    14d2:	83 35       	cpi	r24, 0x53	; 83
    14d4:	09 f0       	breq	.+2      	; 0x14d8 <vfprintf+0xfc>
    14d6:	5b c0       	rjmp	.+182    	; 0x158e <vfprintf+0x1b2>
    14d8:	22 c0       	rjmp	.+68     	; 0x151e <vfprintf+0x142>
    14da:	f8 01       	movw	r30, r16
    14dc:	80 81       	ld	r24, Z
    14de:	89 83       	std	Y+1, r24	; 0x01
    14e0:	0e 5f       	subi	r16, 0xFE	; 254
    14e2:	1f 4f       	sbci	r17, 0xFF	; 255
    14e4:	44 24       	eor	r4, r4
    14e6:	43 94       	inc	r4
    14e8:	51 2c       	mov	r5, r1
    14ea:	54 01       	movw	r10, r8
    14ec:	15 c0       	rjmp	.+42     	; 0x1518 <vfprintf+0x13c>
    14ee:	38 01       	movw	r6, r16
    14f0:	f2 e0       	ldi	r31, 0x02	; 2
    14f2:	6f 0e       	add	r6, r31
    14f4:	71 1c       	adc	r7, r1
    14f6:	f8 01       	movw	r30, r16
    14f8:	a0 80       	ld	r10, Z
    14fa:	b1 80       	ldd	r11, Z+1	; 0x01
    14fc:	26 ff       	sbrs	r18, 6
    14fe:	03 c0       	rjmp	.+6      	; 0x1506 <vfprintf+0x12a>
    1500:	65 2d       	mov	r22, r5
    1502:	70 e0       	ldi	r23, 0x00	; 0
    1504:	02 c0       	rjmp	.+4      	; 0x150a <vfprintf+0x12e>
    1506:	6f ef       	ldi	r22, 0xFF	; 255
    1508:	7f ef       	ldi	r23, 0xFF	; 255
    150a:	c5 01       	movw	r24, r10
    150c:	2c 87       	std	Y+12, r18	; 0x0c
    150e:	0e 94 cb 0b 	call	0x1796	; 0x1796 <strnlen>
    1512:	2c 01       	movw	r4, r24
    1514:	83 01       	movw	r16, r6
    1516:	2c 85       	ldd	r18, Y+12	; 0x0c
    1518:	2f 77       	andi	r18, 0x7F	; 127
    151a:	22 2e       	mov	r2, r18
    151c:	17 c0       	rjmp	.+46     	; 0x154c <vfprintf+0x170>
    151e:	38 01       	movw	r6, r16
    1520:	f2 e0       	ldi	r31, 0x02	; 2
    1522:	6f 0e       	add	r6, r31
    1524:	71 1c       	adc	r7, r1
    1526:	f8 01       	movw	r30, r16
    1528:	a0 80       	ld	r10, Z
    152a:	b1 80       	ldd	r11, Z+1	; 0x01
    152c:	26 ff       	sbrs	r18, 6
    152e:	03 c0       	rjmp	.+6      	; 0x1536 <vfprintf+0x15a>
    1530:	65 2d       	mov	r22, r5
    1532:	70 e0       	ldi	r23, 0x00	; 0
    1534:	02 c0       	rjmp	.+4      	; 0x153a <vfprintf+0x15e>
    1536:	6f ef       	ldi	r22, 0xFF	; 255
    1538:	7f ef       	ldi	r23, 0xFF	; 255
    153a:	c5 01       	movw	r24, r10
    153c:	2c 87       	std	Y+12, r18	; 0x0c
    153e:	0e 94 c0 0b 	call	0x1780	; 0x1780 <strnlen_P>
    1542:	2c 01       	movw	r4, r24
    1544:	2c 85       	ldd	r18, Y+12	; 0x0c
    1546:	20 68       	ori	r18, 0x80	; 128
    1548:	22 2e       	mov	r2, r18
    154a:	83 01       	movw	r16, r6
    154c:	23 fc       	sbrc	r2, 3
    154e:	1b c0       	rjmp	.+54     	; 0x1586 <vfprintf+0x1aa>
    1550:	83 2d       	mov	r24, r3
    1552:	90 e0       	ldi	r25, 0x00	; 0
    1554:	48 16       	cp	r4, r24
    1556:	59 06       	cpc	r5, r25
    1558:	b0 f4       	brcc	.+44     	; 0x1586 <vfprintf+0x1aa>
    155a:	b7 01       	movw	r22, r14
    155c:	80 e2       	ldi	r24, 0x20	; 32
    155e:	90 e0       	ldi	r25, 0x00	; 0
    1560:	0e 94 d6 0b 	call	0x17ac	; 0x17ac <fputc>
    1564:	3a 94       	dec	r3
    1566:	f4 cf       	rjmp	.-24     	; 0x1550 <vfprintf+0x174>
    1568:	f5 01       	movw	r30, r10
    156a:	27 fc       	sbrc	r2, 7
    156c:	85 91       	lpm	r24, Z+
    156e:	27 fe       	sbrs	r2, 7
    1570:	81 91       	ld	r24, Z+
    1572:	5f 01       	movw	r10, r30
    1574:	b7 01       	movw	r22, r14
    1576:	90 e0       	ldi	r25, 0x00	; 0
    1578:	0e 94 d6 0b 	call	0x17ac	; 0x17ac <fputc>
    157c:	31 10       	cpse	r3, r1
    157e:	3a 94       	dec	r3
    1580:	f1 e0       	ldi	r31, 0x01	; 1
    1582:	4f 1a       	sub	r4, r31
    1584:	51 08       	sbc	r5, r1
    1586:	41 14       	cp	r4, r1
    1588:	51 04       	cpc	r5, r1
    158a:	71 f7       	brne	.-36     	; 0x1568 <vfprintf+0x18c>
    158c:	e5 c0       	rjmp	.+458    	; 0x1758 <vfprintf+0x37c>
    158e:	84 36       	cpi	r24, 0x64	; 100
    1590:	11 f0       	breq	.+4      	; 0x1596 <vfprintf+0x1ba>
    1592:	89 36       	cpi	r24, 0x69	; 105
    1594:	39 f5       	brne	.+78     	; 0x15e4 <vfprintf+0x208>
    1596:	f8 01       	movw	r30, r16
    1598:	27 ff       	sbrs	r18, 7
    159a:	07 c0       	rjmp	.+14     	; 0x15aa <vfprintf+0x1ce>
    159c:	60 81       	ld	r22, Z
    159e:	71 81       	ldd	r23, Z+1	; 0x01
    15a0:	82 81       	ldd	r24, Z+2	; 0x02
    15a2:	93 81       	ldd	r25, Z+3	; 0x03
    15a4:	0c 5f       	subi	r16, 0xFC	; 252
    15a6:	1f 4f       	sbci	r17, 0xFF	; 255
    15a8:	08 c0       	rjmp	.+16     	; 0x15ba <vfprintf+0x1de>
    15aa:	60 81       	ld	r22, Z
    15ac:	71 81       	ldd	r23, Z+1	; 0x01
    15ae:	07 2e       	mov	r0, r23
    15b0:	00 0c       	add	r0, r0
    15b2:	88 0b       	sbc	r24, r24
    15b4:	99 0b       	sbc	r25, r25
    15b6:	0e 5f       	subi	r16, 0xFE	; 254
    15b8:	1f 4f       	sbci	r17, 0xFF	; 255
    15ba:	2f 76       	andi	r18, 0x6F	; 111
    15bc:	72 2e       	mov	r7, r18
    15be:	97 ff       	sbrs	r25, 7
    15c0:	09 c0       	rjmp	.+18     	; 0x15d4 <vfprintf+0x1f8>
    15c2:	90 95       	com	r25
    15c4:	80 95       	com	r24
    15c6:	70 95       	com	r23
    15c8:	61 95       	neg	r22
    15ca:	7f 4f       	sbci	r23, 0xFF	; 255
    15cc:	8f 4f       	sbci	r24, 0xFF	; 255
    15ce:	9f 4f       	sbci	r25, 0xFF	; 255
    15d0:	20 68       	ori	r18, 0x80	; 128
    15d2:	72 2e       	mov	r7, r18
    15d4:	2a e0       	ldi	r18, 0x0A	; 10
    15d6:	30 e0       	ldi	r19, 0x00	; 0
    15d8:	a4 01       	movw	r20, r8
    15da:	0e 94 0e 0c 	call	0x181c	; 0x181c <__ultoa_invert>
    15de:	a8 2e       	mov	r10, r24
    15e0:	a8 18       	sub	r10, r8
    15e2:	44 c0       	rjmp	.+136    	; 0x166c <vfprintf+0x290>
    15e4:	85 37       	cpi	r24, 0x75	; 117
    15e6:	29 f4       	brne	.+10     	; 0x15f2 <vfprintf+0x216>
    15e8:	2f 7e       	andi	r18, 0xEF	; 239
    15ea:	b2 2e       	mov	r11, r18
    15ec:	2a e0       	ldi	r18, 0x0A	; 10
    15ee:	30 e0       	ldi	r19, 0x00	; 0
    15f0:	25 c0       	rjmp	.+74     	; 0x163c <vfprintf+0x260>
    15f2:	f2 2f       	mov	r31, r18
    15f4:	f9 7f       	andi	r31, 0xF9	; 249
    15f6:	bf 2e       	mov	r11, r31
    15f8:	8f 36       	cpi	r24, 0x6F	; 111
    15fa:	c1 f0       	breq	.+48     	; 0x162c <vfprintf+0x250>
    15fc:	18 f4       	brcc	.+6      	; 0x1604 <vfprintf+0x228>
    15fe:	88 35       	cpi	r24, 0x58	; 88
    1600:	79 f0       	breq	.+30     	; 0x1620 <vfprintf+0x244>
    1602:	b4 c0       	rjmp	.+360    	; 0x176c <vfprintf+0x390>
    1604:	80 37       	cpi	r24, 0x70	; 112
    1606:	19 f0       	breq	.+6      	; 0x160e <vfprintf+0x232>
    1608:	88 37       	cpi	r24, 0x78	; 120
    160a:	21 f0       	breq	.+8      	; 0x1614 <vfprintf+0x238>
    160c:	af c0       	rjmp	.+350    	; 0x176c <vfprintf+0x390>
    160e:	2f 2f       	mov	r18, r31
    1610:	20 61       	ori	r18, 0x10	; 16
    1612:	b2 2e       	mov	r11, r18
    1614:	b4 fe       	sbrs	r11, 4
    1616:	0d c0       	rjmp	.+26     	; 0x1632 <vfprintf+0x256>
    1618:	8b 2d       	mov	r24, r11
    161a:	84 60       	ori	r24, 0x04	; 4
    161c:	b8 2e       	mov	r11, r24
    161e:	09 c0       	rjmp	.+18     	; 0x1632 <vfprintf+0x256>
    1620:	24 ff       	sbrs	r18, 4
    1622:	0a c0       	rjmp	.+20     	; 0x1638 <vfprintf+0x25c>
    1624:	9f 2f       	mov	r25, r31
    1626:	96 60       	ori	r25, 0x06	; 6
    1628:	b9 2e       	mov	r11, r25
    162a:	06 c0       	rjmp	.+12     	; 0x1638 <vfprintf+0x25c>
    162c:	28 e0       	ldi	r18, 0x08	; 8
    162e:	30 e0       	ldi	r19, 0x00	; 0
    1630:	05 c0       	rjmp	.+10     	; 0x163c <vfprintf+0x260>
    1632:	20 e1       	ldi	r18, 0x10	; 16
    1634:	30 e0       	ldi	r19, 0x00	; 0
    1636:	02 c0       	rjmp	.+4      	; 0x163c <vfprintf+0x260>
    1638:	20 e1       	ldi	r18, 0x10	; 16
    163a:	32 e0       	ldi	r19, 0x02	; 2
    163c:	f8 01       	movw	r30, r16
    163e:	b7 fe       	sbrs	r11, 7
    1640:	07 c0       	rjmp	.+14     	; 0x1650 <vfprintf+0x274>
    1642:	60 81       	ld	r22, Z
    1644:	71 81       	ldd	r23, Z+1	; 0x01
    1646:	82 81       	ldd	r24, Z+2	; 0x02
    1648:	93 81       	ldd	r25, Z+3	; 0x03
    164a:	0c 5f       	subi	r16, 0xFC	; 252
    164c:	1f 4f       	sbci	r17, 0xFF	; 255
    164e:	06 c0       	rjmp	.+12     	; 0x165c <vfprintf+0x280>
    1650:	60 81       	ld	r22, Z
    1652:	71 81       	ldd	r23, Z+1	; 0x01
    1654:	80 e0       	ldi	r24, 0x00	; 0
    1656:	90 e0       	ldi	r25, 0x00	; 0
    1658:	0e 5f       	subi	r16, 0xFE	; 254
    165a:	1f 4f       	sbci	r17, 0xFF	; 255
    165c:	a4 01       	movw	r20, r8
    165e:	0e 94 0e 0c 	call	0x181c	; 0x181c <__ultoa_invert>
    1662:	a8 2e       	mov	r10, r24
    1664:	a8 18       	sub	r10, r8
    1666:	fb 2d       	mov	r31, r11
    1668:	ff 77       	andi	r31, 0x7F	; 127
    166a:	7f 2e       	mov	r7, r31
    166c:	76 fe       	sbrs	r7, 6
    166e:	0b c0       	rjmp	.+22     	; 0x1686 <vfprintf+0x2aa>
    1670:	37 2d       	mov	r19, r7
    1672:	3e 7f       	andi	r19, 0xFE	; 254
    1674:	a5 14       	cp	r10, r5
    1676:	50 f4       	brcc	.+20     	; 0x168c <vfprintf+0x2b0>
    1678:	74 fe       	sbrs	r7, 4
    167a:	0a c0       	rjmp	.+20     	; 0x1690 <vfprintf+0x2b4>
    167c:	72 fc       	sbrc	r7, 2
    167e:	08 c0       	rjmp	.+16     	; 0x1690 <vfprintf+0x2b4>
    1680:	37 2d       	mov	r19, r7
    1682:	3e 7e       	andi	r19, 0xEE	; 238
    1684:	05 c0       	rjmp	.+10     	; 0x1690 <vfprintf+0x2b4>
    1686:	ba 2c       	mov	r11, r10
    1688:	37 2d       	mov	r19, r7
    168a:	03 c0       	rjmp	.+6      	; 0x1692 <vfprintf+0x2b6>
    168c:	ba 2c       	mov	r11, r10
    168e:	01 c0       	rjmp	.+2      	; 0x1692 <vfprintf+0x2b6>
    1690:	b5 2c       	mov	r11, r5
    1692:	34 ff       	sbrs	r19, 4
    1694:	0d c0       	rjmp	.+26     	; 0x16b0 <vfprintf+0x2d4>
    1696:	fe 01       	movw	r30, r28
    1698:	ea 0d       	add	r30, r10
    169a:	f1 1d       	adc	r31, r1
    169c:	80 81       	ld	r24, Z
    169e:	80 33       	cpi	r24, 0x30	; 48
    16a0:	11 f4       	brne	.+4      	; 0x16a6 <vfprintf+0x2ca>
    16a2:	39 7e       	andi	r19, 0xE9	; 233
    16a4:	09 c0       	rjmp	.+18     	; 0x16b8 <vfprintf+0x2dc>
    16a6:	32 ff       	sbrs	r19, 2
    16a8:	06 c0       	rjmp	.+12     	; 0x16b6 <vfprintf+0x2da>
    16aa:	b3 94       	inc	r11
    16ac:	b3 94       	inc	r11
    16ae:	04 c0       	rjmp	.+8      	; 0x16b8 <vfprintf+0x2dc>
    16b0:	83 2f       	mov	r24, r19
    16b2:	86 78       	andi	r24, 0x86	; 134
    16b4:	09 f0       	breq	.+2      	; 0x16b8 <vfprintf+0x2dc>
    16b6:	b3 94       	inc	r11
    16b8:	33 fd       	sbrc	r19, 3
    16ba:	13 c0       	rjmp	.+38     	; 0x16e2 <vfprintf+0x306>
    16bc:	30 ff       	sbrs	r19, 0
    16be:	06 c0       	rjmp	.+12     	; 0x16cc <vfprintf+0x2f0>
    16c0:	5a 2c       	mov	r5, r10
    16c2:	b3 14       	cp	r11, r3
    16c4:	18 f4       	brcc	.+6      	; 0x16cc <vfprintf+0x2f0>
    16c6:	53 0c       	add	r5, r3
    16c8:	5b 18       	sub	r5, r11
    16ca:	b3 2c       	mov	r11, r3
    16cc:	b3 14       	cp	r11, r3
    16ce:	68 f4       	brcc	.+26     	; 0x16ea <vfprintf+0x30e>
    16d0:	b7 01       	movw	r22, r14
    16d2:	80 e2       	ldi	r24, 0x20	; 32
    16d4:	90 e0       	ldi	r25, 0x00	; 0
    16d6:	3c 87       	std	Y+12, r19	; 0x0c
    16d8:	0e 94 d6 0b 	call	0x17ac	; 0x17ac <fputc>
    16dc:	b3 94       	inc	r11
    16de:	3c 85       	ldd	r19, Y+12	; 0x0c
    16e0:	f5 cf       	rjmp	.-22     	; 0x16cc <vfprintf+0x2f0>
    16e2:	b3 14       	cp	r11, r3
    16e4:	10 f4       	brcc	.+4      	; 0x16ea <vfprintf+0x30e>
    16e6:	3b 18       	sub	r3, r11
    16e8:	01 c0       	rjmp	.+2      	; 0x16ec <vfprintf+0x310>
    16ea:	31 2c       	mov	r3, r1
    16ec:	34 ff       	sbrs	r19, 4
    16ee:	12 c0       	rjmp	.+36     	; 0x1714 <vfprintf+0x338>
    16f0:	b7 01       	movw	r22, r14
    16f2:	80 e3       	ldi	r24, 0x30	; 48
    16f4:	90 e0       	ldi	r25, 0x00	; 0
    16f6:	3c 87       	std	Y+12, r19	; 0x0c
    16f8:	0e 94 d6 0b 	call	0x17ac	; 0x17ac <fputc>
    16fc:	3c 85       	ldd	r19, Y+12	; 0x0c
    16fe:	32 ff       	sbrs	r19, 2
    1700:	17 c0       	rjmp	.+46     	; 0x1730 <vfprintf+0x354>
    1702:	31 fd       	sbrc	r19, 1
    1704:	03 c0       	rjmp	.+6      	; 0x170c <vfprintf+0x330>
    1706:	88 e7       	ldi	r24, 0x78	; 120
    1708:	90 e0       	ldi	r25, 0x00	; 0
    170a:	02 c0       	rjmp	.+4      	; 0x1710 <vfprintf+0x334>
    170c:	88 e5       	ldi	r24, 0x58	; 88
    170e:	90 e0       	ldi	r25, 0x00	; 0
    1710:	b7 01       	movw	r22, r14
    1712:	0c c0       	rjmp	.+24     	; 0x172c <vfprintf+0x350>
    1714:	83 2f       	mov	r24, r19
    1716:	86 78       	andi	r24, 0x86	; 134
    1718:	59 f0       	breq	.+22     	; 0x1730 <vfprintf+0x354>
    171a:	31 ff       	sbrs	r19, 1
    171c:	02 c0       	rjmp	.+4      	; 0x1722 <vfprintf+0x346>
    171e:	8b e2       	ldi	r24, 0x2B	; 43
    1720:	01 c0       	rjmp	.+2      	; 0x1724 <vfprintf+0x348>
    1722:	80 e2       	ldi	r24, 0x20	; 32
    1724:	37 fd       	sbrc	r19, 7
    1726:	8d e2       	ldi	r24, 0x2D	; 45
    1728:	b7 01       	movw	r22, r14
    172a:	90 e0       	ldi	r25, 0x00	; 0
    172c:	0e 94 d6 0b 	call	0x17ac	; 0x17ac <fputc>
    1730:	a5 14       	cp	r10, r5
    1732:	38 f4       	brcc	.+14     	; 0x1742 <vfprintf+0x366>
    1734:	b7 01       	movw	r22, r14
    1736:	80 e3       	ldi	r24, 0x30	; 48
    1738:	90 e0       	ldi	r25, 0x00	; 0
    173a:	0e 94 d6 0b 	call	0x17ac	; 0x17ac <fputc>
    173e:	5a 94       	dec	r5
    1740:	f7 cf       	rjmp	.-18     	; 0x1730 <vfprintf+0x354>
    1742:	aa 94       	dec	r10
    1744:	f4 01       	movw	r30, r8
    1746:	ea 0d       	add	r30, r10
    1748:	f1 1d       	adc	r31, r1
    174a:	80 81       	ld	r24, Z
    174c:	b7 01       	movw	r22, r14
    174e:	90 e0       	ldi	r25, 0x00	; 0
    1750:	0e 94 d6 0b 	call	0x17ac	; 0x17ac <fputc>
    1754:	a1 10       	cpse	r10, r1
    1756:	f5 cf       	rjmp	.-22     	; 0x1742 <vfprintf+0x366>
    1758:	33 20       	and	r3, r3
    175a:	09 f4       	brne	.+2      	; 0x175e <vfprintf+0x382>
    175c:	51 ce       	rjmp	.-862    	; 0x1400 <vfprintf+0x24>
    175e:	b7 01       	movw	r22, r14
    1760:	80 e2       	ldi	r24, 0x20	; 32
    1762:	90 e0       	ldi	r25, 0x00	; 0
    1764:	0e 94 d6 0b 	call	0x17ac	; 0x17ac <fputc>
    1768:	3a 94       	dec	r3
    176a:	f6 cf       	rjmp	.-20     	; 0x1758 <vfprintf+0x37c>
    176c:	f7 01       	movw	r30, r14
    176e:	86 81       	ldd	r24, Z+6	; 0x06
    1770:	97 81       	ldd	r25, Z+7	; 0x07
    1772:	02 c0       	rjmp	.+4      	; 0x1778 <vfprintf+0x39c>
    1774:	8f ef       	ldi	r24, 0xFF	; 255
    1776:	9f ef       	ldi	r25, 0xFF	; 255
    1778:	2c 96       	adiw	r28, 0x0c	; 12
    177a:	e2 e1       	ldi	r30, 0x12	; 18
    177c:	0c 94 88 0c 	jmp	0x1910	; 0x1910 <__epilogue_restores__>

00001780 <strnlen_P>:
    1780:	fc 01       	movw	r30, r24
    1782:	05 90       	lpm	r0, Z+
    1784:	61 50       	subi	r22, 0x01	; 1
    1786:	70 40       	sbci	r23, 0x00	; 0
    1788:	01 10       	cpse	r0, r1
    178a:	d8 f7       	brcc	.-10     	; 0x1782 <strnlen_P+0x2>
    178c:	80 95       	com	r24
    178e:	90 95       	com	r25
    1790:	8e 0f       	add	r24, r30
    1792:	9f 1f       	adc	r25, r31
    1794:	08 95       	ret

00001796 <strnlen>:
    1796:	fc 01       	movw	r30, r24
    1798:	61 50       	subi	r22, 0x01	; 1
    179a:	70 40       	sbci	r23, 0x00	; 0
    179c:	01 90       	ld	r0, Z+
    179e:	01 10       	cpse	r0, r1
    17a0:	d8 f7       	brcc	.-10     	; 0x1798 <strnlen+0x2>
    17a2:	80 95       	com	r24
    17a4:	90 95       	com	r25
    17a6:	8e 0f       	add	r24, r30
    17a8:	9f 1f       	adc	r25, r31
    17aa:	08 95       	ret

000017ac <fputc>:
    17ac:	0f 93       	push	r16
    17ae:	1f 93       	push	r17
    17b0:	cf 93       	push	r28
    17b2:	df 93       	push	r29
    17b4:	fb 01       	movw	r30, r22
    17b6:	23 81       	ldd	r18, Z+3	; 0x03
    17b8:	21 fd       	sbrc	r18, 1
    17ba:	03 c0       	rjmp	.+6      	; 0x17c2 <fputc+0x16>
    17bc:	8f ef       	ldi	r24, 0xFF	; 255
    17be:	9f ef       	ldi	r25, 0xFF	; 255
    17c0:	28 c0       	rjmp	.+80     	; 0x1812 <fputc+0x66>
    17c2:	22 ff       	sbrs	r18, 2
    17c4:	16 c0       	rjmp	.+44     	; 0x17f2 <fputc+0x46>
    17c6:	46 81       	ldd	r20, Z+6	; 0x06
    17c8:	57 81       	ldd	r21, Z+7	; 0x07
    17ca:	24 81       	ldd	r18, Z+4	; 0x04
    17cc:	35 81       	ldd	r19, Z+5	; 0x05
    17ce:	42 17       	cp	r20, r18
    17d0:	53 07       	cpc	r21, r19
    17d2:	44 f4       	brge	.+16     	; 0x17e4 <fputc+0x38>
    17d4:	a0 81       	ld	r26, Z
    17d6:	b1 81       	ldd	r27, Z+1	; 0x01
    17d8:	9d 01       	movw	r18, r26
    17da:	2f 5f       	subi	r18, 0xFF	; 255
    17dc:	3f 4f       	sbci	r19, 0xFF	; 255
    17de:	31 83       	std	Z+1, r19	; 0x01
    17e0:	20 83       	st	Z, r18
    17e2:	8c 93       	st	X, r24
    17e4:	26 81       	ldd	r18, Z+6	; 0x06
    17e6:	37 81       	ldd	r19, Z+7	; 0x07
    17e8:	2f 5f       	subi	r18, 0xFF	; 255
    17ea:	3f 4f       	sbci	r19, 0xFF	; 255
    17ec:	37 83       	std	Z+7, r19	; 0x07
    17ee:	26 83       	std	Z+6, r18	; 0x06
    17f0:	10 c0       	rjmp	.+32     	; 0x1812 <fputc+0x66>
    17f2:	eb 01       	movw	r28, r22
    17f4:	09 2f       	mov	r16, r25
    17f6:	18 2f       	mov	r17, r24
    17f8:	00 84       	ldd	r0, Z+8	; 0x08
    17fa:	f1 85       	ldd	r31, Z+9	; 0x09
    17fc:	e0 2d       	mov	r30, r0
    17fe:	09 95       	icall
    1800:	89 2b       	or	r24, r25
    1802:	e1 f6       	brne	.-72     	; 0x17bc <fputc+0x10>
    1804:	8e 81       	ldd	r24, Y+6	; 0x06
    1806:	9f 81       	ldd	r25, Y+7	; 0x07
    1808:	01 96       	adiw	r24, 0x01	; 1
    180a:	9f 83       	std	Y+7, r25	; 0x07
    180c:	8e 83       	std	Y+6, r24	; 0x06
    180e:	81 2f       	mov	r24, r17
    1810:	90 2f       	mov	r25, r16
    1812:	df 91       	pop	r29
    1814:	cf 91       	pop	r28
    1816:	1f 91       	pop	r17
    1818:	0f 91       	pop	r16
    181a:	08 95       	ret

0000181c <__ultoa_invert>:
    181c:	fa 01       	movw	r30, r20
    181e:	aa 27       	eor	r26, r26
    1820:	28 30       	cpi	r18, 0x08	; 8
    1822:	51 f1       	breq	.+84     	; 0x1878 <__ultoa_invert+0x5c>
    1824:	20 31       	cpi	r18, 0x10	; 16
    1826:	81 f1       	breq	.+96     	; 0x1888 <__ultoa_invert+0x6c>
    1828:	e8 94       	clt
    182a:	6f 93       	push	r22
    182c:	6e 7f       	andi	r22, 0xFE	; 254
    182e:	6e 5f       	subi	r22, 0xFE	; 254
    1830:	7f 4f       	sbci	r23, 0xFF	; 255
    1832:	8f 4f       	sbci	r24, 0xFF	; 255
    1834:	9f 4f       	sbci	r25, 0xFF	; 255
    1836:	af 4f       	sbci	r26, 0xFF	; 255
    1838:	b1 e0       	ldi	r27, 0x01	; 1
    183a:	3e d0       	rcall	.+124    	; 0x18b8 <__ultoa_invert+0x9c>
    183c:	b4 e0       	ldi	r27, 0x04	; 4
    183e:	3c d0       	rcall	.+120    	; 0x18b8 <__ultoa_invert+0x9c>
    1840:	67 0f       	add	r22, r23
    1842:	78 1f       	adc	r23, r24
    1844:	89 1f       	adc	r24, r25
    1846:	9a 1f       	adc	r25, r26
    1848:	a1 1d       	adc	r26, r1
    184a:	68 0f       	add	r22, r24
    184c:	79 1f       	adc	r23, r25
    184e:	8a 1f       	adc	r24, r26
    1850:	91 1d       	adc	r25, r1
    1852:	a1 1d       	adc	r26, r1
    1854:	6a 0f       	add	r22, r26
    1856:	71 1d       	adc	r23, r1
    1858:	81 1d       	adc	r24, r1
    185a:	91 1d       	adc	r25, r1
    185c:	a1 1d       	adc	r26, r1
    185e:	20 d0       	rcall	.+64     	; 0x18a0 <__ultoa_invert+0x84>
    1860:	09 f4       	brne	.+2      	; 0x1864 <__ultoa_invert+0x48>
    1862:	68 94       	set
    1864:	3f 91       	pop	r19
    1866:	2a e0       	ldi	r18, 0x0A	; 10
    1868:	26 9f       	mul	r18, r22
    186a:	11 24       	eor	r1, r1
    186c:	30 19       	sub	r19, r0
    186e:	30 5d       	subi	r19, 0xD0	; 208
    1870:	31 93       	st	Z+, r19
    1872:	de f6       	brtc	.-74     	; 0x182a <__ultoa_invert+0xe>
    1874:	cf 01       	movw	r24, r30
    1876:	08 95       	ret
    1878:	46 2f       	mov	r20, r22
    187a:	47 70       	andi	r20, 0x07	; 7
    187c:	40 5d       	subi	r20, 0xD0	; 208
    187e:	41 93       	st	Z+, r20
    1880:	b3 e0       	ldi	r27, 0x03	; 3
    1882:	0f d0       	rcall	.+30     	; 0x18a2 <__ultoa_invert+0x86>
    1884:	c9 f7       	brne	.-14     	; 0x1878 <__ultoa_invert+0x5c>
    1886:	f6 cf       	rjmp	.-20     	; 0x1874 <__ultoa_invert+0x58>
    1888:	46 2f       	mov	r20, r22
    188a:	4f 70       	andi	r20, 0x0F	; 15
    188c:	40 5d       	subi	r20, 0xD0	; 208
    188e:	4a 33       	cpi	r20, 0x3A	; 58
    1890:	18 f0       	brcs	.+6      	; 0x1898 <__ultoa_invert+0x7c>
    1892:	49 5d       	subi	r20, 0xD9	; 217
    1894:	31 fd       	sbrc	r19, 1
    1896:	40 52       	subi	r20, 0x20	; 32
    1898:	41 93       	st	Z+, r20
    189a:	02 d0       	rcall	.+4      	; 0x18a0 <__ultoa_invert+0x84>
    189c:	a9 f7       	brne	.-22     	; 0x1888 <__ultoa_invert+0x6c>
    189e:	ea cf       	rjmp	.-44     	; 0x1874 <__ultoa_invert+0x58>
    18a0:	b4 e0       	ldi	r27, 0x04	; 4
    18a2:	a6 95       	lsr	r26
    18a4:	97 95       	ror	r25
    18a6:	87 95       	ror	r24
    18a8:	77 95       	ror	r23
    18aa:	67 95       	ror	r22
    18ac:	ba 95       	dec	r27
    18ae:	c9 f7       	brne	.-14     	; 0x18a2 <__ultoa_invert+0x86>
    18b0:	00 97       	sbiw	r24, 0x00	; 0
    18b2:	61 05       	cpc	r22, r1
    18b4:	71 05       	cpc	r23, r1
    18b6:	08 95       	ret
    18b8:	9b 01       	movw	r18, r22
    18ba:	ac 01       	movw	r20, r24
    18bc:	0a 2e       	mov	r0, r26
    18be:	06 94       	lsr	r0
    18c0:	57 95       	ror	r21
    18c2:	47 95       	ror	r20
    18c4:	37 95       	ror	r19
    18c6:	27 95       	ror	r18
    18c8:	ba 95       	dec	r27
    18ca:	c9 f7       	brne	.-14     	; 0x18be <__ultoa_invert+0xa2>
    18cc:	62 0f       	add	r22, r18
    18ce:	73 1f       	adc	r23, r19
    18d0:	84 1f       	adc	r24, r20
    18d2:	95 1f       	adc	r25, r21
    18d4:	a0 1d       	adc	r26, r0
    18d6:	08 95       	ret

000018d8 <__prologue_saves__>:
    18d8:	2f 92       	push	r2
    18da:	3f 92       	push	r3
    18dc:	4f 92       	push	r4
    18de:	5f 92       	push	r5
    18e0:	6f 92       	push	r6
    18e2:	7f 92       	push	r7
    18e4:	8f 92       	push	r8
    18e6:	9f 92       	push	r9
    18e8:	af 92       	push	r10
    18ea:	bf 92       	push	r11
    18ec:	cf 92       	push	r12
    18ee:	df 92       	push	r13
    18f0:	ef 92       	push	r14
    18f2:	ff 92       	push	r15
    18f4:	0f 93       	push	r16
    18f6:	1f 93       	push	r17
    18f8:	cf 93       	push	r28
    18fa:	df 93       	push	r29
    18fc:	cd b7       	in	r28, 0x3d	; 61
    18fe:	de b7       	in	r29, 0x3e	; 62
    1900:	ca 1b       	sub	r28, r26
    1902:	db 0b       	sbc	r29, r27
    1904:	0f b6       	in	r0, 0x3f	; 63
    1906:	f8 94       	cli
    1908:	de bf       	out	0x3e, r29	; 62
    190a:	0f be       	out	0x3f, r0	; 63
    190c:	cd bf       	out	0x3d, r28	; 61
    190e:	09 94       	ijmp

00001910 <__epilogue_restores__>:
    1910:	2a 88       	ldd	r2, Y+18	; 0x12
    1912:	39 88       	ldd	r3, Y+17	; 0x11
    1914:	48 88       	ldd	r4, Y+16	; 0x10
    1916:	5f 84       	ldd	r5, Y+15	; 0x0f
    1918:	6e 84       	ldd	r6, Y+14	; 0x0e
    191a:	7d 84       	ldd	r7, Y+13	; 0x0d
    191c:	8c 84       	ldd	r8, Y+12	; 0x0c
    191e:	9b 84       	ldd	r9, Y+11	; 0x0b
    1920:	aa 84       	ldd	r10, Y+10	; 0x0a
    1922:	b9 84       	ldd	r11, Y+9	; 0x09
    1924:	c8 84       	ldd	r12, Y+8	; 0x08
    1926:	df 80       	ldd	r13, Y+7	; 0x07
    1928:	ee 80       	ldd	r14, Y+6	; 0x06
    192a:	fd 80       	ldd	r15, Y+5	; 0x05
    192c:	0c 81       	ldd	r16, Y+4	; 0x04
    192e:	1b 81       	ldd	r17, Y+3	; 0x03
    1930:	aa 81       	ldd	r26, Y+2	; 0x02
    1932:	b9 81       	ldd	r27, Y+1	; 0x01
    1934:	ce 0f       	add	r28, r30
    1936:	d1 1d       	adc	r29, r1
    1938:	0f b6       	in	r0, 0x3f	; 63
    193a:	f8 94       	cli
    193c:	de bf       	out	0x3e, r29	; 62
    193e:	0f be       	out	0x3f, r0	; 63
    1940:	cd bf       	out	0x3d, r28	; 61
    1942:	ed 01       	movw	r28, r26
    1944:	08 95       	ret

00001946 <_exit>:
    1946:	f8 94       	cli

00001948 <__stop_program>:
    1948:	ff cf       	rjmp	.-2      	; 0x1948 <__stop_program>
