
Projeto_Final.elf:     file format elf32-avr

Sections:
Idx Name          Size      VMA       LMA       File off  Algn
  0 .data         00000110  00800100  00001db8  00001e4c  2**0
                  CONTENTS, ALLOC, LOAD, DATA
  1 .text         00001db8  00000000  00000000  00000094  2**1
                  CONTENTS, ALLOC, LOAD, READONLY, CODE
  2 .bss          0000036e  00800210  00800210  00001f5c  2**0
                  ALLOC
  3 .comment      00000011  00000000  00000000  00001f5c  2**0
                  CONTENTS, READONLY
  4 .note.gnu.avr.deviceinfo 00000040  00000000  00000000  00001f70  2**2
                  CONTENTS, READONLY

Disassembly of section .text:

00000000 <__vectors>:
       0:	0c 94 40 00 	jmp	0x80	; 0x80 <__ctors_end>
       4:	0c 94 5d 00 	jmp	0xba	; 0xba <__bad_interrupt>
       8:	0c 94 5d 00 	jmp	0xba	; 0xba <__bad_interrupt>
       c:	0c 94 5d 00 	jmp	0xba	; 0xba <__bad_interrupt>
      10:	0c 94 5d 00 	jmp	0xba	; 0xba <__bad_interrupt>
      14:	0c 94 5d 00 	jmp	0xba	; 0xba <__bad_interrupt>
      18:	0c 94 5d 00 	jmp	0xba	; 0xba <__bad_interrupt>
      1c:	0c 94 5d 00 	jmp	0xba	; 0xba <__bad_interrupt>
      20:	0c 94 5d 00 	jmp	0xba	; 0xba <__bad_interrupt>
      24:	0c 94 5d 00 	jmp	0xba	; 0xba <__bad_interrupt>
      28:	0c 94 5d 00 	jmp	0xba	; 0xba <__bad_interrupt>
      2c:	0c 94 5d 00 	jmp	0xba	; 0xba <__bad_interrupt>
      30:	0c 94 5d 00 	jmp	0xba	; 0xba <__bad_interrupt>
      34:	0c 94 4d 01 	jmp	0x29a	; 0x29a <__vector_13>
      38:	0c 94 5d 00 	jmp	0xba	; 0xba <__bad_interrupt>
      3c:	0c 94 5d 00 	jmp	0xba	; 0xba <__bad_interrupt>
      40:	0c 94 5d 00 	jmp	0xba	; 0xba <__bad_interrupt>
      44:	0c 94 5d 00 	jmp	0xba	; 0xba <__bad_interrupt>
      48:	0c 94 e6 01 	jmp	0x3cc	; 0x3cc <__vector_18>
      4c:	0c 94 5d 00 	jmp	0xba	; 0xba <__bad_interrupt>
      50:	0c 94 5d 00 	jmp	0xba	; 0xba <__bad_interrupt>
      54:	0c 94 5d 00 	jmp	0xba	; 0xba <__bad_interrupt>
      58:	0c 94 5d 00 	jmp	0xba	; 0xba <__bad_interrupt>
      5c:	0c 94 5d 00 	jmp	0xba	; 0xba <__bad_interrupt>
      60:	0c 94 5d 00 	jmp	0xba	; 0xba <__bad_interrupt>
      64:	0c 94 5d 00 	jmp	0xba	; 0xba <__bad_interrupt>
      68:	58 06       	cpc	r5, r24
      6a:	5e 06       	cpc	r5, r30
      6c:	6d 06       	cpc	r6, r29
      6e:	75 06       	cpc	r7, r21
      70:	7d 06       	cpc	r7, r29
      72:	8a 06       	cpc	r8, r26
      74:	a8 06       	cpc	r10, r24
      76:	b4 06       	cpc	r11, r20
      78:	9c 06       	cpc	r9, r28
      7a:	c6 06       	cpc	r12, r22
      7c:	c1 06       	cpc	r12, r17
      7e:	cd 06       	cpc	r12, r29

00000080 <__ctors_end>:
      80:	11 24       	eor	r1, r1
      82:	1f be       	out	0x3f, r1	; 63
      84:	cf ef       	ldi	r28, 0xFF	; 255
      86:	d8 e0       	ldi	r29, 0x08	; 8
      88:	de bf       	out	0x3e, r29	; 62
      8a:	cd bf       	out	0x3d, r28	; 61

0000008c <__do_copy_data>:
      8c:	12 e0       	ldi	r17, 0x02	; 2
      8e:	a0 e0       	ldi	r26, 0x00	; 0
      90:	b1 e0       	ldi	r27, 0x01	; 1
      92:	e8 eb       	ldi	r30, 0xB8	; 184
      94:	fd e1       	ldi	r31, 0x1D	; 29
      96:	02 c0       	rjmp	.+4      	; 0x9c <__do_copy_data+0x10>
      98:	05 90       	lpm	r0, Z+
      9a:	0d 92       	st	X+, r0
      9c:	a0 31       	cpi	r26, 0x10	; 16
      9e:	b1 07       	cpc	r27, r17
      a0:	d9 f7       	brne	.-10     	; 0x98 <__do_copy_data+0xc>

000000a2 <__do_clear_bss>:
      a2:	25 e0       	ldi	r18, 0x05	; 5
      a4:	a0 e1       	ldi	r26, 0x10	; 16
      a6:	b2 e0       	ldi	r27, 0x02	; 2
      a8:	01 c0       	rjmp	.+2      	; 0xac <.do_clear_bss_start>

000000aa <.do_clear_bss_loop>:
      aa:	1d 92       	st	X+, r1

000000ac <.do_clear_bss_start>:
      ac:	ae 37       	cpi	r26, 0x7E	; 126
      ae:	b2 07       	cpc	r27, r18
      b0:	e1 f7       	brne	.-8      	; 0xaa <.do_clear_bss_loop>
      b2:	0e 94 bf 08 	call	0x117e	; 0x117e <main>
      b6:	0c 94 da 0e 	jmp	0x1db4	; 0x1db4 <_exit>

000000ba <__bad_interrupt>:
      ba:	0c 94 00 00 	jmp	0	; 0x0 <__vectors>

000000be <lcd_data>:
      be:	2c 9a       	sbi	0x05, 4	; 5
      c0:	2d 9a       	sbi	0x05, 5	; 5
      c2:	ef e8       	ldi	r30, 0x8F	; 143
      c4:	f1 e0       	ldi	r31, 0x01	; 1
      c6:	31 97       	sbiw	r30, 0x01	; 1
      c8:	f1 f7       	brne	.-4      	; 0xc6 <lcd_data+0x8>
      ca:	00 c0       	rjmp	.+0      	; 0xcc <lcd_data+0xe>
      cc:	00 00       	nop
      ce:	9b b1       	in	r25, 0x0b	; 11
      d0:	98 2b       	or	r25, r24
      d2:	9b b9       	out	0x0b, r25	; 11
      d4:	f5 e3       	ldi	r31, 0x35	; 53
      d6:	fa 95       	dec	r31
      d8:	f1 f7       	brne	.-4      	; 0xd6 <lcd_data+0x18>
      da:	00 00       	nop
      dc:	2d 98       	cbi	0x05, 5	; 5
      de:	ef e3       	ldi	r30, 0x3F	; 63
      e0:	ff e1       	ldi	r31, 0x1F	; 31
      e2:	31 97       	sbiw	r30, 0x01	; 1
      e4:	f1 f7       	brne	.-4      	; 0xe2 <lcd_data+0x24>
      e6:	00 c0       	rjmp	.+0      	; 0xe8 <lcd_data+0x2a>
      e8:	00 00       	nop
      ea:	9b b1       	in	r25, 0x0b	; 11
      ec:	80 95       	com	r24
      ee:	89 23       	and	r24, r25
      f0:	8b b9       	out	0x0b, r24	; 11
      f2:	08 95       	ret

000000f4 <lcdData>:
      f4:	cf 93       	push	r28
      f6:	c8 2f       	mov	r28, r24
      f8:	80 7f       	andi	r24, 0xF0	; 240
      fa:	0e 94 5f 00 	call	0xbe	; 0xbe <lcd_data>
      fe:	85 e3       	ldi	r24, 0x35	; 53
     100:	8a 95       	dec	r24
     102:	f1 f7       	brne	.-4      	; 0x100 <lcdData+0xc>
     104:	00 00       	nop
     106:	8c 2f       	mov	r24, r28
     108:	82 95       	swap	r24
     10a:	80 7f       	andi	r24, 0xF0	; 240
     10c:	0e 94 5f 00 	call	0xbe	; 0xbe <lcd_data>
     110:	85 e3       	ldi	r24, 0x35	; 53
     112:	8a 95       	dec	r24
     114:	f1 f7       	brne	.-4      	; 0x112 <lcdData+0x1e>
     116:	00 00       	nop
     118:	cf 91       	pop	r28
     11a:	08 95       	ret

0000011c <lcd_print>:
     11c:	cf 93       	push	r28
     11e:	df 93       	push	r29
     120:	ec 01       	movw	r28, r24
     122:	89 91       	ld	r24, Y+
     124:	88 23       	and	r24, r24
     126:	19 f0       	breq	.+6      	; 0x12e <lcd_print+0x12>
     128:	0e 94 7a 00 	call	0xf4	; 0xf4 <lcdData>
     12c:	fa cf       	rjmp	.-12     	; 0x122 <lcd_print+0x6>
     12e:	df 91       	pop	r29
     130:	cf 91       	pop	r28
     132:	08 95       	ret

00000134 <lcd_command>:
     134:	2c 98       	cbi	0x05, 4	; 5
     136:	2d 9a       	sbi	0x05, 5	; 5
     138:	ef e8       	ldi	r30, 0x8F	; 143
     13a:	f1 e0       	ldi	r31, 0x01	; 1
     13c:	31 97       	sbiw	r30, 0x01	; 1
     13e:	f1 f7       	brne	.-4      	; 0x13c <lcd_command+0x8>
     140:	00 c0       	rjmp	.+0      	; 0x142 <lcd_command+0xe>
     142:	00 00       	nop
     144:	9b b1       	in	r25, 0x0b	; 11
     146:	98 2b       	or	r25, r24
     148:	9b b9       	out	0x0b, r25	; 11
     14a:	f5 e3       	ldi	r31, 0x35	; 53
     14c:	fa 95       	dec	r31
     14e:	f1 f7       	brne	.-4      	; 0x14c <lcd_command+0x18>
     150:	00 00       	nop
     152:	2d 98       	cbi	0x05, 5	; 5
     154:	ef e3       	ldi	r30, 0x3F	; 63
     156:	ff e1       	ldi	r31, 0x1F	; 31
     158:	31 97       	sbiw	r30, 0x01	; 1
     15a:	f1 f7       	brne	.-4      	; 0x158 <lcd_command+0x24>
     15c:	00 c0       	rjmp	.+0      	; 0x15e <lcd_command+0x2a>
     15e:	00 00       	nop
     160:	9b b1       	in	r25, 0x0b	; 11
     162:	80 95       	com	r24
     164:	89 23       	and	r24, r25
     166:	8b b9       	out	0x0b, r24	; 11
     168:	08 95       	ret

0000016a <lcdCommand>:
     16a:	cf 93       	push	r28
     16c:	c8 2f       	mov	r28, r24
     16e:	80 7f       	andi	r24, 0xF0	; 240
     170:	0e 94 9a 00 	call	0x134	; 0x134 <lcd_command>
     174:	85 e3       	ldi	r24, 0x35	; 53
     176:	8a 95       	dec	r24
     178:	f1 f7       	brne	.-4      	; 0x176 <lcdCommand+0xc>
     17a:	00 00       	nop
     17c:	8c 2f       	mov	r24, r28
     17e:	82 95       	swap	r24
     180:	80 7f       	andi	r24, 0xF0	; 240
     182:	0e 94 9a 00 	call	0x134	; 0x134 <lcd_command>
     186:	85 e3       	ldi	r24, 0x35	; 53
     188:	8a 95       	dec	r24
     18a:	f1 f7       	brne	.-4      	; 0x188 <lcdCommand+0x1e>
     18c:	00 00       	nop
     18e:	cf 91       	pop	r28
     190:	08 95       	ret

00000192 <lcd_init>:
     192:	84 b1       	in	r24, 0x04	; 4
     194:	80 63       	ori	r24, 0x30	; 48
     196:	84 b9       	out	0x04, r24	; 4
     198:	82 e0       	ldi	r24, 0x02	; 2
     19a:	0e 94 b5 00 	call	0x16a	; 0x16a <lcdCommand>
     19e:	81 e0       	ldi	r24, 0x01	; 1
     1a0:	0e 94 b5 00 	call	0x16a	; 0x16a <lcdCommand>
     1a4:	88 e2       	ldi	r24, 0x28	; 40
     1a6:	0e 94 b5 00 	call	0x16a	; 0x16a <lcdCommand>
     1aa:	8f e0       	ldi	r24, 0x0F	; 15
     1ac:	0e 94 b5 00 	call	0x16a	; 0x16a <lcdCommand>
     1b0:	80 e8       	ldi	r24, 0x80	; 128
     1b2:	0e 94 b5 00 	call	0x16a	; 0x16a <lcdCommand>
     1b6:	2f ef       	ldi	r18, 0xFF	; 255
     1b8:	83 ec       	ldi	r24, 0xC3	; 195
     1ba:	99 e0       	ldi	r25, 0x09	; 9
     1bc:	21 50       	subi	r18, 0x01	; 1
     1be:	80 40       	sbci	r24, 0x00	; 0
     1c0:	90 40       	sbci	r25, 0x00	; 0
     1c2:	e1 f7       	brne	.-8      	; 0x1bc <lcd_init+0x2a>
     1c4:	00 c0       	rjmp	.+0      	; 0x1c6 <lcd_init+0x34>
     1c6:	00 00       	nop
     1c8:	08 95       	ret

000001ca <lcd_gotoxy>:
     1ca:	cf 93       	push	r28
     1cc:	df 93       	push	r29
     1ce:	00 d0       	rcall	.+0      	; 0x1d0 <lcd_gotoxy+0x6>
     1d0:	00 d0       	rcall	.+0      	; 0x1d2 <lcd_gotoxy+0x8>
     1d2:	cd b7       	in	r28, 0x3d	; 61
     1d4:	de b7       	in	r29, 0x3e	; 62
     1d6:	90 e8       	ldi	r25, 0x80	; 128
     1d8:	99 83       	std	Y+1, r25	; 0x01
     1da:	90 ec       	ldi	r25, 0xC0	; 192
     1dc:	9a 83       	std	Y+2, r25	; 0x02
     1de:	94 e9       	ldi	r25, 0x94	; 148
     1e0:	9b 83       	std	Y+3, r25	; 0x03
     1e2:	94 ed       	ldi	r25, 0xD4	; 212
     1e4:	9c 83       	std	Y+4, r25	; 0x04
     1e6:	81 50       	subi	r24, 0x01	; 1
     1e8:	fe 01       	movw	r30, r28
     1ea:	e6 0f       	add	r30, r22
     1ec:	f1 1d       	adc	r31, r1
     1ee:	90 81       	ld	r25, Z
     1f0:	89 0f       	add	r24, r25
     1f2:	0e 94 b5 00 	call	0x16a	; 0x16a <lcdCommand>
     1f6:	8f ec       	ldi	r24, 0xCF	; 207
     1f8:	97 e0       	ldi	r25, 0x07	; 7
     1fa:	01 97       	sbiw	r24, 0x01	; 1
     1fc:	f1 f7       	brne	.-4      	; 0x1fa <lcd_gotoxy+0x30>
     1fe:	00 c0       	rjmp	.+0      	; 0x200 <lcd_gotoxy+0x36>
     200:	00 00       	nop
     202:	0f 90       	pop	r0
     204:	0f 90       	pop	r0
     206:	0f 90       	pop	r0
     208:	0f 90       	pop	r0
     20a:	df 91       	pop	r29
     20c:	cf 91       	pop	r28
     20e:	08 95       	ret

00000210 <Reset_Lcd>:
     210:	81 e0       	ldi	r24, 0x01	; 1
     212:	0c 94 b5 00 	jmp	0x16a	; 0x16a <lcdCommand>

00000216 <init_usart>:
     216:	10 92 c5 00 	sts	0x00C5, r1
     21a:	8f ec       	ldi	r24, 0xCF	; 207
     21c:	80 93 c4 00 	sts	0x00C4, r24
     220:	86 e0       	ldi	r24, 0x06	; 6
     222:	80 93 c2 00 	sts	0x00C2, r24
     226:	82 e0       	ldi	r24, 0x02	; 2
     228:	80 93 c0 00 	sts	0x00C0, r24
     22c:	88 e9       	ldi	r24, 0x98	; 152
     22e:	80 93 c1 00 	sts	0x00C1, r24
     232:	08 95       	ret

00000234 <Send_Data>:
     234:	90 91 c0 00 	lds	r25, 0x00C0
     238:	95 ff       	sbrs	r25, 5
     23a:	fc cf       	rjmp	.-8      	; 0x234 <Send_Data>
     23c:	80 93 c6 00 	sts	0x00C6, r24
     240:	08 95       	ret

00000242 <Receive_Data>:
     242:	80 91 c0 00 	lds	r24, 0x00C0
     246:	87 ff       	sbrs	r24, 7
     248:	fc cf       	rjmp	.-8      	; 0x242 <Receive_Data>
     24a:	80 91 c6 00 	lds	r24, 0x00C6
     24e:	08 95       	ret

00000250 <init_adc>:
     250:	ec e7       	ldi	r30, 0x7C	; 124
     252:	f0 e0       	ldi	r31, 0x00	; 0
     254:	80 81       	ld	r24, Z
     256:	80 64       	ori	r24, 0x40	; 64
     258:	80 83       	st	Z, r24
     25a:	ee e7       	ldi	r30, 0x7E	; 126
     25c:	f0 e0       	ldi	r31, 0x00	; 0
     25e:	80 81       	ld	r24, Z
     260:	81 60       	ori	r24, 0x01	; 1
     262:	80 83       	st	Z, r24
     264:	ea e7       	ldi	r30, 0x7A	; 122
     266:	f0 e0       	ldi	r31, 0x00	; 0
     268:	80 81       	ld	r24, Z
     26a:	87 68       	ori	r24, 0x87	; 135
     26c:	80 83       	st	Z, r24
     26e:	08 95       	ret

00000270 <read_adc>:
     270:	90 91 7c 00 	lds	r25, 0x007C
     274:	8f 70       	andi	r24, 0x0F	; 15
     276:	90 7f       	andi	r25, 0xF0	; 240
     278:	89 2b       	or	r24, r25
     27a:	80 93 7c 00 	sts	0x007C, r24
     27e:	80 91 7a 00 	lds	r24, 0x007A
     282:	80 64       	ori	r24, 0x40	; 64
     284:	80 93 7a 00 	sts	0x007A, r24
     288:	80 91 7a 00 	lds	r24, 0x007A
     28c:	86 fd       	sbrc	r24, 6
     28e:	fc cf       	rjmp	.-8      	; 0x288 <read_adc+0x18>
     290:	80 91 78 00 	lds	r24, 0x0078
     294:	90 91 79 00 	lds	r25, 0x0079
     298:	08 95       	ret

0000029a <__vector_13>:
     29a:	1f 92       	push	r1
     29c:	0f 92       	push	r0
     29e:	0f b6       	in	r0, 0x3f	; 63
     2a0:	0f 92       	push	r0
     2a2:	11 24       	eor	r1, r1
     2a4:	8f 93       	push	r24
     2a6:	9f 93       	push	r25
     2a8:	80 e8       	ldi	r24, 0x80	; 128
     2aa:	91 ec       	ldi	r25, 0xC1	; 193
     2ac:	90 93 85 00 	sts	0x0085, r25
     2b0:	80 93 84 00 	sts	0x0084, r24
     2b4:	80 91 99 04 	lds	r24, 0x0499
     2b8:	90 91 9a 04 	lds	r25, 0x049A
     2bc:	89 2b       	or	r24, r25
     2be:	49 f0       	breq	.+18     	; 0x2d2 <__vector_13+0x38>
     2c0:	80 91 99 04 	lds	r24, 0x0499
     2c4:	90 91 9a 04 	lds	r25, 0x049A
     2c8:	01 97       	sbiw	r24, 0x01	; 1
     2ca:	90 93 9a 04 	sts	0x049A, r25
     2ce:	80 93 99 04 	sts	0x0499, r24
     2d2:	80 91 9b 04 	lds	r24, 0x049B
     2d6:	90 91 9c 04 	lds	r25, 0x049C
     2da:	89 2b       	or	r24, r25
     2dc:	49 f0       	breq	.+18     	; 0x2f0 <__vector_13+0x56>
     2de:	80 91 9b 04 	lds	r24, 0x049B
     2e2:	90 91 9c 04 	lds	r25, 0x049C
     2e6:	01 97       	sbiw	r24, 0x01	; 1
     2e8:	90 93 9c 04 	sts	0x049C, r25
     2ec:	80 93 9b 04 	sts	0x049B, r24
     2f0:	80 91 24 02 	lds	r24, 0x0224
     2f4:	90 91 25 02 	lds	r25, 0x0225
     2f8:	89 2b       	or	r24, r25
     2fa:	49 f0       	breq	.+18     	; 0x30e <__vector_13+0x74>
     2fc:	80 91 24 02 	lds	r24, 0x0224
     300:	90 91 25 02 	lds	r25, 0x0225
     304:	01 97       	sbiw	r24, 0x01	; 1
     306:	90 93 25 02 	sts	0x0225, r25
     30a:	80 93 24 02 	sts	0x0224, r24
     30e:	80 91 9f 04 	lds	r24, 0x049F
     312:	90 91 a0 04 	lds	r25, 0x04A0
     316:	89 2b       	or	r24, r25
     318:	49 f0       	breq	.+18     	; 0x32c <__vector_13+0x92>
     31a:	80 91 9f 04 	lds	r24, 0x049F
     31e:	90 91 a0 04 	lds	r25, 0x04A0
     322:	01 97       	sbiw	r24, 0x01	; 1
     324:	90 93 a0 04 	sts	0x04A0, r25
     328:	80 93 9f 04 	sts	0x049F, r24
     32c:	80 91 b6 03 	lds	r24, 0x03B6
     330:	90 91 b7 03 	lds	r25, 0x03B7
     334:	89 2b       	or	r24, r25
     336:	49 f0       	breq	.+18     	; 0x34a <__vector_13+0xb0>
     338:	80 91 b6 03 	lds	r24, 0x03B6
     33c:	90 91 b7 03 	lds	r25, 0x03B7
     340:	01 97       	sbiw	r24, 0x01	; 1
     342:	90 93 b7 03 	sts	0x03B7, r25
     346:	80 93 b6 03 	sts	0x03B6, r24
     34a:	80 91 a7 04 	lds	r24, 0x04A7
     34e:	90 91 a8 04 	lds	r25, 0x04A8
     352:	89 2b       	or	r24, r25
     354:	49 f0       	breq	.+18     	; 0x368 <__vector_13+0xce>
     356:	80 91 a7 04 	lds	r24, 0x04A7
     35a:	90 91 a8 04 	lds	r25, 0x04A8
     35e:	01 97       	sbiw	r24, 0x01	; 1
     360:	90 93 a8 04 	sts	0x04A8, r25
     364:	80 93 a7 04 	sts	0x04A7, r24
     368:	80 91 a1 04 	lds	r24, 0x04A1
     36c:	90 91 a2 04 	lds	r25, 0x04A2
     370:	89 2b       	or	r24, r25
     372:	49 f0       	breq	.+18     	; 0x386 <__vector_13+0xec>
     374:	80 91 a1 04 	lds	r24, 0x04A1
     378:	90 91 a2 04 	lds	r25, 0x04A2
     37c:	01 97       	sbiw	r24, 0x01	; 1
     37e:	90 93 a2 04 	sts	0x04A2, r25
     382:	80 93 a1 04 	sts	0x04A1, r24
     386:	80 91 b8 03 	lds	r24, 0x03B8
     38a:	90 91 b9 03 	lds	r25, 0x03B9
     38e:	80 91 b8 03 	lds	r24, 0x03B8
     392:	90 91 b9 03 	lds	r25, 0x03B9
     396:	01 96       	adiw	r24, 0x01	; 1
     398:	90 93 b9 03 	sts	0x03B9, r25
     39c:	80 93 b8 03 	sts	0x03B8, r24
     3a0:	80 91 a4 04 	lds	r24, 0x04A4
     3a4:	90 91 a5 04 	lds	r25, 0x04A5
     3a8:	89 2b       	or	r24, r25
     3aa:	49 f0       	breq	.+18     	; 0x3be <__vector_13+0x124>
     3ac:	80 91 a4 04 	lds	r24, 0x04A4
     3b0:	90 91 a5 04 	lds	r25, 0x04A5
     3b4:	01 97       	sbiw	r24, 0x01	; 1
     3b6:	90 93 a5 04 	sts	0x04A5, r25
     3ba:	80 93 a4 04 	sts	0x04A4, r24
     3be:	9f 91       	pop	r25
     3c0:	8f 91       	pop	r24
     3c2:	0f 90       	pop	r0
     3c4:	0f be       	out	0x3f, r0	; 63
     3c6:	0f 90       	pop	r0
     3c8:	1f 90       	pop	r1
     3ca:	18 95       	reti

000003cc <__vector_18>:
     3cc:	1f 92       	push	r1
     3ce:	0f 92       	push	r0
     3d0:	0f b6       	in	r0, 0x3f	; 63
     3d2:	0f 92       	push	r0
     3d4:	11 24       	eor	r1, r1
     3d6:	8f 93       	push	r24
     3d8:	9f 93       	push	r25
     3da:	80 91 c6 00 	lds	r24, 0x00C6
     3de:	9a e6       	ldi	r25, 0x6A	; 106
     3e0:	98 0f       	add	r25, r24
     3e2:	92 30       	cpi	r25, 0x02	; 2
     3e4:	18 f4       	brcc	.+6      	; 0x3ec <__vector_18+0x20>
     3e6:	80 93 ac 04 	sts	0x04AC, r24
     3ea:	85 c0       	rjmp	.+266    	; 0x4f6 <__vector_18+0x12a>
     3ec:	93 ec       	ldi	r25, 0xC3	; 195
     3ee:	98 0f       	add	r25, r24
     3f0:	95 30       	cpi	r25, 0x05	; 5
     3f2:	28 f5       	brcc	.+74     	; 0x43e <__vector_18+0x72>
     3f4:	8d 33       	cpi	r24, 0x3D	; 61
     3f6:	11 f4       	brne	.+4      	; 0x3fc <__vector_18+0x30>
     3f8:	82 eb       	ldi	r24, 0xB2	; 178
     3fa:	7b c0       	rjmp	.+246    	; 0x4f2 <__vector_18+0x126>
     3fc:	8e 33       	cpi	r24, 0x3E	; 62
     3fe:	11 f4       	brne	.+4      	; 0x404 <__vector_18+0x38>
     400:	89 eb       	ldi	r24, 0xB9	; 185
     402:	77 c0       	rjmp	.+238    	; 0x4f2 <__vector_18+0x126>
     404:	8f 33       	cpi	r24, 0x3F	; 63
     406:	09 f4       	brne	.+2      	; 0x40a <__vector_18+0x3e>
     408:	6d c0       	rjmp	.+218    	; 0x4e4 <__vector_18+0x118>
     40a:	80 34       	cpi	r24, 0x40	; 64
     40c:	59 f4       	brne	.+22     	; 0x424 <__vector_18+0x58>
     40e:	8c ed       	ldi	r24, 0xDC	; 220
     410:	80 93 ad 04 	sts	0x04AD, r24
     414:	89 e1       	ldi	r24, 0x19	; 25
     416:	80 93 bf 03 	sts	0x03BF, r24
     41a:	8e e1       	ldi	r24, 0x1E	; 30
     41c:	80 93 ae 04 	sts	0x04AE, r24
     420:	86 e2       	ldi	r24, 0x26	; 38
     422:	0a c0       	rjmp	.+20     	; 0x438 <__vector_18+0x6c>
     424:	80 ef       	ldi	r24, 0xF0	; 240
     426:	80 93 ad 04 	sts	0x04AD, r24
     42a:	83 e2       	ldi	r24, 0x23	; 35
     42c:	80 93 bf 03 	sts	0x03BF, r24
     430:	88 e2       	ldi	r24, 0x28	; 40
     432:	80 93 ae 04 	sts	0x04AE, r24
     436:	80 e3       	ldi	r24, 0x30	; 48
     438:	80 93 bc 03 	sts	0x03BC, r24
     43c:	5c c0       	rjmp	.+184    	; 0x4f6 <__vector_18+0x12a>
     43e:	8a 32       	cpi	r24, 0x2A	; 42
     440:	09 f4       	brne	.+2      	; 0x444 <__vector_18+0x78>
     442:	41 c0       	rjmp	.+130    	; 0x4c6 <__vector_18+0xfa>
     444:	8b 32       	cpi	r24, 0x2B	; 43
     446:	59 f4       	brne	.+22     	; 0x45e <__vector_18+0x92>
     448:	81 e0       	ldi	r24, 0x01	; 1
     44a:	80 93 bd 03 	sts	0x03BD, r24
     44e:	10 92 b9 03 	sts	0x03B9, r1
     452:	10 92 b8 03 	sts	0x03B8, r1
     456:	82 e0       	ldi	r24, 0x02	; 2
     458:	80 93 92 04 	sts	0x0492, r24
     45c:	4c c0       	rjmp	.+152    	; 0x4f6 <__vector_18+0x12a>
     45e:	8c 32       	cpi	r24, 0x2C	; 44
     460:	39 f4       	brne	.+14     	; 0x470 <__vector_18+0xa4>
     462:	10 92 bd 03 	sts	0x03BD, r1
     466:	83 e0       	ldi	r24, 0x03	; 3
     468:	80 93 92 04 	sts	0x0492, r24
     46c:	28 98       	cbi	0x05, 0	; 5
     46e:	43 c0       	rjmp	.+134    	; 0x4f6 <__vector_18+0x12a>
     470:	8d 32       	cpi	r24, 0x2D	; 45
     472:	21 f4       	brne	.+8      	; 0x47c <__vector_18+0xb0>
     474:	81 e0       	ldi	r24, 0x01	; 1
     476:	80 93 c2 03 	sts	0x03C2, r24
     47a:	3d c0       	rjmp	.+122    	; 0x4f6 <__vector_18+0x12a>
     47c:	8e 32       	cpi	r24, 0x2E	; 46
     47e:	19 f4       	brne	.+6      	; 0x486 <__vector_18+0xba>
     480:	10 92 c2 03 	sts	0x03C2, r1
     484:	38 c0       	rjmp	.+112    	; 0x4f6 <__vector_18+0x12a>
     486:	9f ef       	ldi	r25, 0xFF	; 255
     488:	98 0f       	add	r25, r24
     48a:	94 30       	cpi	r25, 0x04	; 4
     48c:	80 f4       	brcc	.+32     	; 0x4ae <__vector_18+0xe2>
     48e:	81 30       	cpi	r24, 0x01	; 1
     490:	11 f4       	brne	.+4      	; 0x496 <__vector_18+0xca>
     492:	8b e1       	ldi	r24, 0x1B	; 27
     494:	09 c0       	rjmp	.+18     	; 0x4a8 <__vector_18+0xdc>
     496:	82 30       	cpi	r24, 0x02	; 2
     498:	11 f4       	brne	.+4      	; 0x49e <__vector_18+0xd2>
     49a:	88 e1       	ldi	r24, 0x18	; 24
     49c:	05 c0       	rjmp	.+10     	; 0x4a8 <__vector_18+0xdc>
     49e:	83 30       	cpi	r24, 0x03	; 3
     4a0:	11 f4       	brne	.+4      	; 0x4a6 <__vector_18+0xda>
     4a2:	84 e1       	ldi	r24, 0x14	; 20
     4a4:	01 c0       	rjmp	.+2      	; 0x4a8 <__vector_18+0xdc>
     4a6:	8e e1       	ldi	r24, 0x1E	; 30
     4a8:	80 93 8b 04 	sts	0x048B, r24
     4ac:	24 c0       	rjmp	.+72     	; 0x4f6 <__vector_18+0x12a>
     4ae:	85 30       	cpi	r24, 0x05	; 5
     4b0:	21 f0       	breq	.+8      	; 0x4ba <__vector_18+0xee>
     4b2:	95 ef       	ldi	r25, 0xF5	; 245
     4b4:	98 0f       	add	r25, r24
     4b6:	94 30       	cpi	r25, 0x04	; 4
     4b8:	10 f4       	brcc	.+4      	; 0x4be <__vector_18+0xf2>
     4ba:	8d e1       	ldi	r24, 0x1D	; 29
     4bc:	f5 cf       	rjmp	.-22     	; 0x4a8 <__vector_18+0xdc>
     4be:	98 ed       	ldi	r25, 0xD8	; 216
     4c0:	98 0f       	add	r25, r24
     4c2:	92 30       	cpi	r25, 0x02	; 2
     4c4:	18 f4       	brcc	.+6      	; 0x4cc <__vector_18+0x100>
     4c6:	80 93 c0 03 	sts	0x03C0, r24
     4ca:	15 c0       	rjmp	.+42     	; 0x4f6 <__vector_18+0x12a>
     4cc:	9d ec       	ldi	r25, 0xCD	; 205
     4ce:	98 0f       	add	r25, r24
     4d0:	95 30       	cpi	r25, 0x05	; 5
     4d2:	88 f4       	brcc	.+34     	; 0x4f6 <__vector_18+0x12a>
     4d4:	83 33       	cpi	r24, 0x33	; 51
     4d6:	11 f4       	brne	.+4      	; 0x4dc <__vector_18+0x110>
     4d8:	84 eb       	ldi	r24, 0xB4	; 180
     4da:	0b c0       	rjmp	.+22     	; 0x4f2 <__vector_18+0x126>
     4dc:	84 33       	cpi	r24, 0x34	; 52
     4de:	11 f0       	breq	.+4      	; 0x4e4 <__vector_18+0x118>
     4e0:	85 33       	cpi	r24, 0x35	; 53
     4e2:	11 f4       	brne	.+4      	; 0x4e8 <__vector_18+0x11c>
     4e4:	88 ec       	ldi	r24, 0xC8	; 200
     4e6:	05 c0       	rjmp	.+10     	; 0x4f2 <__vector_18+0x126>
     4e8:	86 33       	cpi	r24, 0x36	; 54
     4ea:	11 f4       	brne	.+4      	; 0x4f0 <__vector_18+0x124>
     4ec:	8c ed       	ldi	r24, 0xDC	; 220
     4ee:	01 c0       	rjmp	.+2      	; 0x4f2 <__vector_18+0x126>
     4f0:	8a ef       	ldi	r24, 0xFA	; 250
     4f2:	80 93 ad 04 	sts	0x04AD, r24
     4f6:	80 ed       	ldi	r24, 0xD0	; 208
     4f8:	97 e0       	ldi	r25, 0x07	; 7
     4fa:	90 93 9c 04 	sts	0x049C, r25
     4fe:	80 93 9b 04 	sts	0x049B, r24
     502:	9f 91       	pop	r25
     504:	8f 91       	pop	r24
     506:	0f 90       	pop	r0
     508:	0f be       	out	0x3f, r0	; 63
     50a:	0f 90       	pop	r0
     50c:	1f 90       	pop	r1
     50e:	18 95       	reti

00000510 <Sensores>:
     510:	35 9b       	sbis	0x06, 5	; 6
     512:	04 c0       	rjmp	.+8      	; 0x51c <Sensores+0xc>
     514:	81 e0       	ldi	r24, 0x01	; 1
     516:	80 93 97 04 	sts	0x0497, r24
     51a:	02 c0       	rjmp	.+4      	; 0x520 <Sensores+0x10>
     51c:	10 92 97 04 	sts	0x0497, r1
     520:	34 9b       	sbis	0x06, 4	; 6
     522:	04 c0       	rjmp	.+8      	; 0x52c <Sensores+0x1c>
     524:	81 e0       	ldi	r24, 0x01	; 1
     526:	80 93 96 04 	sts	0x0496, r24
     52a:	02 c0       	rjmp	.+4      	; 0x530 <Sensores+0x20>
     52c:	10 92 96 04 	sts	0x0496, r1
     530:	33 9b       	sbis	0x06, 3	; 6
     532:	04 c0       	rjmp	.+8      	; 0x53c <Sensores+0x2c>
     534:	81 e0       	ldi	r24, 0x01	; 1
     536:	80 93 95 04 	sts	0x0495, r24
     53a:	02 c0       	rjmp	.+4      	; 0x540 <Sensores+0x30>
     53c:	10 92 95 04 	sts	0x0495, r1
     540:	32 9b       	sbis	0x06, 2	; 6
     542:	04 c0       	rjmp	.+8      	; 0x54c <Sensores+0x3c>
     544:	81 e0       	ldi	r24, 0x01	; 1
     546:	80 93 94 04 	sts	0x0494, r24
     54a:	02 c0       	rjmp	.+4      	; 0x550 <Sensores+0x40>
     54c:	10 92 94 04 	sts	0x0494, r1
     550:	31 9b       	sbis	0x06, 1	; 6
     552:	04 c0       	rjmp	.+8      	; 0x55c <Sensores+0x4c>
     554:	81 e0       	ldi	r24, 0x01	; 1
     556:	80 93 93 04 	sts	0x0493, r24
     55a:	08 95       	ret
     55c:	10 92 93 04 	sts	0x0493, r1
     560:	08 95       	ret

00000562 <Modo_Run>:
     562:	28 98       	cbi	0x05, 0	; 5
     564:	5a 9a       	sbi	0x0b, 2	; 11
     566:	08 95       	ret

00000568 <Incializa_Manual>:
     568:	cf 93       	push	r28
     56a:	df 93       	push	r29
     56c:	81 e0       	ldi	r24, 0x01	; 1
     56e:	80 93 ab 04 	sts	0x04AB, r24
     572:	5a 9a       	sbi	0x0b, 2	; 11
     574:	28 98       	cbi	0x05, 0	; 5
     576:	0e 94 b5 00 	call	0x16a	; 0x16a <lcdCommand>
     57a:	2f ef       	ldi	r18, 0xFF	; 255
     57c:	89 ef       	ldi	r24, 0xF9	; 249
     57e:	90 e0       	ldi	r25, 0x00	; 0
     580:	21 50       	subi	r18, 0x01	; 1
     582:	80 40       	sbci	r24, 0x00	; 0
     584:	90 40       	sbci	r25, 0x00	; 0
     586:	e1 f7       	brne	.-8      	; 0x580 <Incializa_Manual+0x18>
     588:	00 c0       	rjmp	.+0      	; 0x58a <Incializa_Manual+0x22>
     58a:	00 00       	nop
     58c:	61 e0       	ldi	r22, 0x01	; 1
     58e:	81 e0       	ldi	r24, 0x01	; 1
     590:	0e 94 e5 00 	call	0x1ca	; 0x1ca <lcd_gotoxy>
     594:	ce e0       	ldi	r28, 0x0E	; 14
     596:	d1 e0       	ldi	r29, 0x01	; 1
     598:	df 93       	push	r29
     59a:	cf 93       	push	r28
     59c:	0e 94 ec 0b 	call	0x17d8	; 0x17d8 <printf>
     5a0:	62 e0       	ldi	r22, 0x02	; 2
     5a2:	85 e0       	ldi	r24, 0x05	; 5
     5a4:	0e 94 e5 00 	call	0x1ca	; 0x1ca <lcd_gotoxy>
     5a8:	80 ef       	ldi	r24, 0xF0	; 240
     5aa:	91 e0       	ldi	r25, 0x01	; 1
     5ac:	9f 93       	push	r25
     5ae:	8f 93       	push	r24
     5b0:	0e 94 ec 0b 	call	0x17d8	; 0x17d8 <printf>
     5b4:	63 e0       	ldi	r22, 0x03	; 3
     5b6:	81 e0       	ldi	r24, 0x01	; 1
     5b8:	0e 94 e5 00 	call	0x1ca	; 0x1ca <lcd_gotoxy>
     5bc:	df 93       	push	r29
     5be:	cf 93       	push	r28
     5c0:	0e 94 ec 0b 	call	0x17d8	; 0x17d8 <printf>
     5c4:	0f 90       	pop	r0
     5c6:	0f 90       	pop	r0
     5c8:	0f 90       	pop	r0
     5ca:	0f 90       	pop	r0
     5cc:	0f 90       	pop	r0
     5ce:	0f 90       	pop	r0
     5d0:	df 91       	pop	r29
     5d2:	cf 91       	pop	r28
     5d4:	08 95       	ret

000005d6 <Conta_Volta>:
     5d6:	90 91 93 04 	lds	r25, 0x0493
     5da:	91 11       	cpse	r25, r1
     5dc:	12 c0       	rjmp	.+36     	; 0x602 <Conta_Volta+0x2c>
     5de:	80 91 94 04 	lds	r24, 0x0494
     5e2:	88 23       	and	r24, r24
     5e4:	71 f0       	breq	.+28     	; 0x602 <Conta_Volta+0x2c>
     5e6:	80 91 95 04 	lds	r24, 0x0495
     5ea:	81 11       	cpse	r24, r1
     5ec:	0a c0       	rjmp	.+20     	; 0x602 <Conta_Volta+0x2c>
     5ee:	80 91 96 04 	lds	r24, 0x0496
     5f2:	88 23       	and	r24, r24
     5f4:	31 f0       	breq	.+12     	; 0x602 <Conta_Volta+0x2c>
     5f6:	80 91 97 04 	lds	r24, 0x0497
     5fa:	81 11       	cpse	r24, r1
     5fc:	02 c0       	rjmp	.+4      	; 0x602 <Conta_Volta+0x2c>
     5fe:	81 e0       	ldi	r24, 0x01	; 1
     600:	0b c0       	rjmp	.+22     	; 0x618 <Conta_Volta+0x42>
     602:	80 91 c1 03 	lds	r24, 0x03C1
     606:	81 30       	cpi	r24, 0x01	; 1
     608:	51 f4       	brne	.+20     	; 0x61e <Conta_Volta+0x48>
     60a:	99 23       	and	r25, r25
     60c:	d1 f0       	breq	.+52     	; 0x642 <Conta_Volta+0x6c>
     60e:	80 91 97 04 	lds	r24, 0x0497
     612:	88 23       	and	r24, r24
     614:	b1 f0       	breq	.+44     	; 0x642 <Conta_Volta+0x6c>
     616:	82 e0       	ldi	r24, 0x02	; 2
     618:	80 93 c1 03 	sts	0x03C1, r24
     61c:	08 95       	ret
     61e:	82 30       	cpi	r24, 0x02	; 2
     620:	81 f4       	brne	.+32     	; 0x642 <Conta_Volta+0x6c>
     622:	86 e4       	ldi	r24, 0x46	; 70
     624:	0e 94 1a 01 	call	0x234	; 0x234 <Send_Data>
     628:	10 92 c1 03 	sts	0x03C1, r1
     62c:	8f ee       	ldi	r24, 0xEF	; 239
     62e:	9a e0       	ldi	r25, 0x0A	; 10
     630:	01 97       	sbiw	r24, 0x01	; 1
     632:	f1 f7       	brne	.-4      	; 0x630 <Conta_Volta+0x5a>
     634:	00 c0       	rjmp	.+0      	; 0x636 <Conta_Volta+0x60>
     636:	00 00       	nop
     638:	80 91 8e 04 	lds	r24, 0x048E
     63c:	8f 5f       	subi	r24, 0xFF	; 255
     63e:	80 93 8e 04 	sts	0x048E, r24
     642:	08 95       	ret

00000644 <lcd_print_lcd>:
     644:	80 91 c0 03 	lds	r24, 0x03C0
     648:	89 32       	cpi	r24, 0x29	; 41
     64a:	09 f0       	breq	.+2      	; 0x64e <lcd_print_lcd+0xa>
     64c:	ac c0       	rjmp	.+344    	; 0x7a6 <lcd_print_lcd+0x162>
     64e:	80 91 a6 04 	lds	r24, 0x04A6
     652:	81 11       	cpse	r24, r1
     654:	45 c0       	rjmp	.+138    	; 0x6e0 <lcd_print_lcd+0x9c>
     656:	61 e0       	ldi	r22, 0x01	; 1
     658:	81 e0       	ldi	r24, 0x01	; 1
     65a:	0e 94 e5 00 	call	0x1ca	; 0x1ca <lcd_gotoxy>
     65e:	1f 92       	push	r1
     660:	8f ef       	ldi	r24, 0xFF	; 255
     662:	8f 93       	push	r24
     664:	1f 92       	push	r1
     666:	8f 93       	push	r24
     668:	1f 92       	push	r1
     66a:	8f 93       	push	r24
     66c:	81 e0       	ldi	r24, 0x01	; 1
     66e:	90 91 97 04 	lds	r25, 0x0497
     672:	91 11       	cpse	r25, r1
     674:	80 e0       	ldi	r24, 0x00	; 0
     676:	1f 92       	push	r1
     678:	8f 93       	push	r24
     67a:	81 e0       	ldi	r24, 0x01	; 1
     67c:	90 91 96 04 	lds	r25, 0x0496
     680:	91 11       	cpse	r25, r1
     682:	80 e0       	ldi	r24, 0x00	; 0
     684:	1f 92       	push	r1
     686:	8f 93       	push	r24
     688:	81 e0       	ldi	r24, 0x01	; 1
     68a:	90 91 95 04 	lds	r25, 0x0495
     68e:	91 11       	cpse	r25, r1
     690:	80 e0       	ldi	r24, 0x00	; 0
     692:	1f 92       	push	r1
     694:	8f 93       	push	r24
     696:	81 e0       	ldi	r24, 0x01	; 1
     698:	90 91 94 04 	lds	r25, 0x0494
     69c:	91 11       	cpse	r25, r1
     69e:	80 e0       	ldi	r24, 0x00	; 0
     6a0:	1f 92       	push	r1
     6a2:	8f 93       	push	r24
     6a4:	81 e0       	ldi	r24, 0x01	; 1
     6a6:	90 91 93 04 	lds	r25, 0x0493
     6aa:	91 11       	cpse	r25, r1
     6ac:	80 e0       	ldi	r24, 0x00	; 0
     6ae:	1f 92       	push	r1
     6b0:	8f 93       	push	r24
     6b2:	1f 92       	push	r1
     6b4:	8f ef       	ldi	r24, 0xFF	; 255
     6b6:	8f 93       	push	r24
     6b8:	1f 92       	push	r1
     6ba:	8f 93       	push	r24
     6bc:	83 e2       	ldi	r24, 0x23	; 35
     6be:	91 e0       	ldi	r25, 0x01	; 1
     6c0:	9f 93       	push	r25
     6c2:	8f 93       	push	r24
     6c4:	0e 94 ec 0b 	call	0x17d8	; 0x17d8 <printf>
     6c8:	81 e0       	ldi	r24, 0x01	; 1
     6ca:	80 93 a6 04 	sts	0x04A6, r24
     6ce:	8d b7       	in	r24, 0x3d	; 61
     6d0:	9e b7       	in	r25, 0x3e	; 62
     6d2:	46 96       	adiw	r24, 0x16	; 22
     6d4:	0f b6       	in	r0, 0x3f	; 63
     6d6:	f8 94       	cli
     6d8:	9e bf       	out	0x3e, r25	; 62
     6da:	0f be       	out	0x3f, r0	; 63
     6dc:	8d bf       	out	0x3d, r24	; 61
     6de:	79 c0       	rjmp	.+242    	; 0x7d2 <lcd_print_lcd+0x18e>
     6e0:	81 30       	cpi	r24, 0x01	; 1
     6e2:	49 f5       	brne	.+82     	; 0x736 <lcd_print_lcd+0xf2>
     6e4:	80 91 ac 04 	lds	r24, 0x04AC
     6e8:	86 39       	cpi	r24, 0x96	; 150
     6ea:	99 f4       	brne	.+38     	; 0x712 <lcd_print_lcd+0xce>
     6ec:	62 e0       	ldi	r22, 0x02	; 2
     6ee:	81 e0       	ldi	r24, 0x01	; 1
     6f0:	0e 94 e5 00 	call	0x1ca	; 0x1ca <lcd_gotoxy>
     6f4:	80 91 8e 04 	lds	r24, 0x048E
     6f8:	1f 92       	push	r1
     6fa:	8f 93       	push	r24
     6fc:	82 e4       	ldi	r24, 0x42	; 66
     6fe:	91 e0       	ldi	r25, 0x01	; 1
     700:	9f 93       	push	r25
     702:	8f 93       	push	r24
     704:	0e 94 ec 0b 	call	0x17d8	; 0x17d8 <printf>
     708:	0f 90       	pop	r0
     70a:	0f 90       	pop	r0
     70c:	0f 90       	pop	r0
     70e:	0f 90       	pop	r0
     710:	10 c0       	rjmp	.+32     	; 0x732 <lcd_print_lcd+0xee>
     712:	80 91 ac 04 	lds	r24, 0x04AC
     716:	87 39       	cpi	r24, 0x97	; 151
     718:	61 f4       	brne	.+24     	; 0x732 <lcd_print_lcd+0xee>
     71a:	62 e0       	ldi	r22, 0x02	; 2
     71c:	81 e0       	ldi	r24, 0x01	; 1
     71e:	0e 94 e5 00 	call	0x1ca	; 0x1ca <lcd_gotoxy>
     722:	86 e5       	ldi	r24, 0x56	; 86
     724:	91 e0       	ldi	r25, 0x01	; 1
     726:	9f 93       	push	r25
     728:	8f 93       	push	r24
     72a:	0e 94 ec 0b 	call	0x17d8	; 0x17d8 <printf>
     72e:	0f 90       	pop	r0
     730:	0f 90       	pop	r0
     732:	82 e0       	ldi	r24, 0x02	; 2
     734:	22 c0       	rjmp	.+68     	; 0x77a <lcd_print_lcd+0x136>
     736:	82 30       	cpi	r24, 0x02	; 2
     738:	19 f5       	brne	.+70     	; 0x780 <lcd_print_lcd+0x13c>
     73a:	80 91 9b 04 	lds	r24, 0x049B
     73e:	90 91 9c 04 	lds	r25, 0x049C
     742:	89 2b       	or	r24, r25
     744:	39 f0       	breq	.+14     	; 0x754 <lcd_print_lcd+0x110>
     746:	63 e0       	ldi	r22, 0x03	; 3
     748:	81 e0       	ldi	r24, 0x01	; 1
     74a:	0e 94 e5 00 	call	0x1ca	; 0x1ca <lcd_gotoxy>
     74e:	8b e5       	ldi	r24, 0x5B	; 91
     750:	91 e0       	ldi	r25, 0x01	; 1
     752:	0c c0       	rjmp	.+24     	; 0x76c <lcd_print_lcd+0x128>
     754:	80 91 9b 04 	lds	r24, 0x049B
     758:	90 91 9c 04 	lds	r25, 0x049C
     75c:	89 2b       	or	r24, r25
     75e:	61 f4       	brne	.+24     	; 0x778 <lcd_print_lcd+0x134>
     760:	63 e0       	ldi	r22, 0x03	; 3
     762:	81 e0       	ldi	r24, 0x01	; 1
     764:	0e 94 e5 00 	call	0x1ca	; 0x1ca <lcd_gotoxy>
     768:	8f e6       	ldi	r24, 0x6F	; 111
     76a:	91 e0       	ldi	r25, 0x01	; 1
     76c:	9f 93       	push	r25
     76e:	8f 93       	push	r24
     770:	0e 94 ec 0b 	call	0x17d8	; 0x17d8 <printf>
     774:	0f 90       	pop	r0
     776:	0f 90       	pop	r0
     778:	83 e0       	ldi	r24, 0x03	; 3
     77a:	80 93 a6 04 	sts	0x04A6, r24
     77e:	29 c0       	rjmp	.+82     	; 0x7d2 <lcd_print_lcd+0x18e>
     780:	83 30       	cpi	r24, 0x03	; 3
     782:	39 f5       	brne	.+78     	; 0x7d2 <lcd_print_lcd+0x18e>
     784:	64 e0       	ldi	r22, 0x04	; 4
     786:	81 e0       	ldi	r24, 0x01	; 1
     788:	0e 94 e5 00 	call	0x1ca	; 0x1ca <lcd_gotoxy>
     78c:	80 e1       	ldi	r24, 0x10	; 16
     78e:	92 e0       	ldi	r25, 0x02	; 2
     790:	9f 93       	push	r25
     792:	8f 93       	push	r24
     794:	8f e7       	ldi	r24, 0x7F	; 127
     796:	91 e0       	ldi	r25, 0x01	; 1
     798:	9f 93       	push	r25
     79a:	8f 93       	push	r24
     79c:	0e 94 ec 0b 	call	0x17d8	; 0x17d8 <printf>
     7a0:	10 92 a6 04 	sts	0x04A6, r1
     7a4:	12 c0       	rjmp	.+36     	; 0x7ca <lcd_print_lcd+0x186>
     7a6:	80 91 c0 03 	lds	r24, 0x03C0
     7aa:	88 32       	cpi	r24, 0x28	; 40
     7ac:	91 f4       	brne	.+36     	; 0x7d2 <lcd_print_lcd+0x18e>
     7ae:	64 e0       	ldi	r22, 0x04	; 4
     7b0:	81 e0       	ldi	r24, 0x01	; 1
     7b2:	0e 94 e5 00 	call	0x1ca	; 0x1ca <lcd_gotoxy>
     7b6:	80 e1       	ldi	r24, 0x10	; 16
     7b8:	92 e0       	ldi	r25, 0x02	; 2
     7ba:	9f 93       	push	r25
     7bc:	8f 93       	push	r24
     7be:	8f e7       	ldi	r24, 0x7F	; 127
     7c0:	91 e0       	ldi	r25, 0x01	; 1
     7c2:	9f 93       	push	r25
     7c4:	8f 93       	push	r24
     7c6:	0e 94 ec 0b 	call	0x17d8	; 0x17d8 <printf>
     7ca:	0f 90       	pop	r0
     7cc:	0f 90       	pop	r0
     7ce:	0f 90       	pop	r0
     7d0:	0f 90       	pop	r0
     7d2:	8c e0       	ldi	r24, 0x0C	; 12
     7d4:	0c 94 b5 00 	jmp	0x16a	; 0x16a <lcdCommand>

000007d8 <Print_Battery>:
     7d8:	88 3f       	cpi	r24, 0xF8	; 248
     7da:	21 e1       	ldi	r18, 0x11	; 17
     7dc:	92 07       	cpc	r25, r18
     7de:	58 f0       	brcs	.+22     	; 0x7f6 <Print_Battery+0x1e>
     7e0:	8a e0       	ldi	r24, 0x0A	; 10
     7e2:	80 93 77 05 	sts	0x0577, r24
     7e6:	80 91 77 05 	lds	r24, 0x0577
     7ea:	e0 e1       	ldi	r30, 0x10	; 16
     7ec:	f2 e0       	ldi	r31, 0x02	; 2
     7ee:	90 e0       	ldi	r25, 0x00	; 0
     7f0:	20 e2       	ldi	r18, 0x20	; 32
     7f2:	3f ef       	ldi	r19, 0xFF	; 255
     7f4:	3d c0       	rjmp	.+122    	; 0x870 <Print_Battery+0x98>
     7f6:	84 39       	cpi	r24, 0x94	; 148
     7f8:	21 e1       	ldi	r18, 0x11	; 17
     7fa:	92 07       	cpc	r25, r18
     7fc:	10 f0       	brcs	.+4      	; 0x802 <Print_Battery+0x2a>
     7fe:	89 e0       	ldi	r24, 0x09	; 9
     800:	f0 cf       	rjmp	.-32     	; 0x7e2 <Print_Battery+0xa>
     802:	80 33       	cpi	r24, 0x30	; 48
     804:	21 e1       	ldi	r18, 0x11	; 17
     806:	92 07       	cpc	r25, r18
     808:	10 f0       	brcs	.+4      	; 0x80e <Print_Battery+0x36>
     80a:	88 e0       	ldi	r24, 0x08	; 8
     80c:	ea cf       	rjmp	.-44     	; 0x7e2 <Print_Battery+0xa>
     80e:	8c 3c       	cpi	r24, 0xCC	; 204
     810:	20 e1       	ldi	r18, 0x10	; 16
     812:	92 07       	cpc	r25, r18
     814:	10 f0       	brcs	.+4      	; 0x81a <Print_Battery+0x42>
     816:	87 e0       	ldi	r24, 0x07	; 7
     818:	e4 cf       	rjmp	.-56     	; 0x7e2 <Print_Battery+0xa>
     81a:	84 30       	cpi	r24, 0x04	; 4
     81c:	20 e1       	ldi	r18, 0x10	; 16
     81e:	92 07       	cpc	r25, r18
     820:	10 f0       	brcs	.+4      	; 0x826 <Print_Battery+0x4e>
     822:	86 e0       	ldi	r24, 0x06	; 6
     824:	de cf       	rjmp	.-68     	; 0x7e2 <Print_Battery+0xa>
     826:	8c 33       	cpi	r24, 0x3C	; 60
     828:	2f e0       	ldi	r18, 0x0F	; 15
     82a:	92 07       	cpc	r25, r18
     82c:	10 f0       	brcs	.+4      	; 0x832 <Print_Battery+0x5a>
     82e:	85 e0       	ldi	r24, 0x05	; 5
     830:	d8 cf       	rjmp	.-80     	; 0x7e2 <Print_Battery+0xa>
     832:	84 37       	cpi	r24, 0x74	; 116
     834:	2e e0       	ldi	r18, 0x0E	; 14
     836:	92 07       	cpc	r25, r18
     838:	10 f0       	brcs	.+4      	; 0x83e <Print_Battery+0x66>
     83a:	84 e0       	ldi	r24, 0x04	; 4
     83c:	d2 cf       	rjmp	.-92     	; 0x7e2 <Print_Battery+0xa>
     83e:	8c 3a       	cpi	r24, 0xAC	; 172
     840:	2d e0       	ldi	r18, 0x0D	; 13
     842:	92 07       	cpc	r25, r18
     844:	10 f0       	brcs	.+4      	; 0x84a <Print_Battery+0x72>
     846:	83 e0       	ldi	r24, 0x03	; 3
     848:	cc cf       	rjmp	.-104    	; 0x7e2 <Print_Battery+0xa>
     84a:	84 3e       	cpi	r24, 0xE4	; 228
     84c:	2c e0       	ldi	r18, 0x0C	; 12
     84e:	92 07       	cpc	r25, r18
     850:	10 f0       	brcs	.+4      	; 0x856 <Print_Battery+0x7e>
     852:	82 e0       	ldi	r24, 0x02	; 2
     854:	c6 cf       	rjmp	.-116    	; 0x7e2 <Print_Battery+0xa>
     856:	8c 31       	cpi	r24, 0x1C	; 28
     858:	9c 40       	sbci	r25, 0x0C	; 12
     85a:	10 f0       	brcs	.+4      	; 0x860 <Print_Battery+0x88>
     85c:	81 e0       	ldi	r24, 0x01	; 1
     85e:	c1 cf       	rjmp	.-126    	; 0x7e2 <Print_Battery+0xa>
     860:	10 92 77 05 	sts	0x0577, r1
     864:	c0 cf       	rjmp	.-128    	; 0x7e6 <Print_Battery+0xe>
     866:	20 83       	st	Z, r18
     868:	9f 5f       	subi	r25, 0xFF	; 255
     86a:	31 96       	adiw	r30, 0x01	; 1
     86c:	9a 30       	cpi	r25, 0x0A	; 10
     86e:	21 f0       	breq	.+8      	; 0x878 <Print_Battery+0xa0>
     870:	98 17       	cp	r25, r24
     872:	c8 f7       	brcc	.-14     	; 0x866 <Print_Battery+0x8e>
     874:	30 83       	st	Z, r19
     876:	f8 cf       	rjmp	.-16     	; 0x868 <Print_Battery+0x90>
     878:	2a e0       	ldi	r18, 0x0A	; 10
     87a:	82 9f       	mul	r24, r18
     87c:	c0 01       	movw	r24, r0
     87e:	11 24       	eor	r1, r1
     880:	9f 93       	push	r25
     882:	8f 93       	push	r24
     884:	83 e5       	ldi	r24, 0x53	; 83
     886:	91 e0       	ldi	r25, 0x01	; 1
     888:	9f 93       	push	r25
     88a:	8f 93       	push	r24
     88c:	8a e1       	ldi	r24, 0x1A	; 26
     88e:	92 e0       	ldi	r25, 0x02	; 2
     890:	9f 93       	push	r25
     892:	8f 93       	push	r24
     894:	0e 94 02 0c 	call	0x1804	; 0x1804 <sprintf>
     898:	80 91 77 05 	lds	r24, 0x0577
     89c:	0f 90       	pop	r0
     89e:	0f 90       	pop	r0
     8a0:	0f 90       	pop	r0
     8a2:	0f 90       	pop	r0
     8a4:	0f 90       	pop	r0
     8a6:	0f 90       	pop	r0
     8a8:	81 11       	cpse	r24, r1
     8aa:	0c c0       	rjmp	.+24     	; 0x8c4 <Print_Battery+0xec>
     8ac:	85 e2       	ldi	r24, 0x25	; 37
     8ae:	80 93 1b 02 	sts	0x021B, r24
     8b2:	ec e1       	ldi	r30, 0x1C	; 28
     8b4:	f2 e0       	ldi	r31, 0x02	; 2
     8b6:	90 e2       	ldi	r25, 0x20	; 32
     8b8:	88 e0       	ldi	r24, 0x08	; 8
     8ba:	8e 0f       	add	r24, r30
     8bc:	91 93       	st	Z+, r25
     8be:	8e 13       	cpse	r24, r30
     8c0:	fd cf       	rjmp	.-6      	; 0x8bc <Print_Battery+0xe4>
     8c2:	08 95       	ret
     8c4:	2a e0       	ldi	r18, 0x0A	; 10
     8c6:	82 9f       	mul	r24, r18
     8c8:	c0 01       	movw	r24, r0
     8ca:	11 24       	eor	r1, r1
     8cc:	84 36       	cpi	r24, 0x64	; 100
     8ce:	91 05       	cpc	r25, r1
     8d0:	64 f4       	brge	.+24     	; 0x8ea <Print_Battery+0x112>
     8d2:	85 e2       	ldi	r24, 0x25	; 37
     8d4:	80 93 1c 02 	sts	0x021C, r24
     8d8:	ed e1       	ldi	r30, 0x1D	; 29
     8da:	f2 e0       	ldi	r31, 0x02	; 2
     8dc:	90 e2       	ldi	r25, 0x20	; 32
     8de:	87 e0       	ldi	r24, 0x07	; 7
     8e0:	8e 0f       	add	r24, r30
     8e2:	91 93       	st	Z+, r25
     8e4:	8e 13       	cpse	r24, r30
     8e6:	fd cf       	rjmp	.-6      	; 0x8e2 <Print_Battery+0x10a>
     8e8:	08 95       	ret
     8ea:	84 36       	cpi	r24, 0x64	; 100
     8ec:	91 05       	cpc	r25, r1
     8ee:	81 f4       	brne	.+32     	; 0x910 <__stack+0x11>
     8f0:	85 e2       	ldi	r24, 0x25	; 37
     8f2:	80 93 1d 02 	sts	0x021D, r24
     8f6:	80 e2       	ldi	r24, 0x20	; 32
     8f8:	80 93 1e 02 	sts	0x021E, r24
     8fc:	80 93 1f 02 	sts	0x021F, r24
     900:	80 93 20 02 	sts	0x0220, r24
     904:	80 93 21 02 	sts	0x0221, r24
     908:	80 93 22 02 	sts	0x0222, r24
     90c:	80 93 23 02 	sts	0x0223, r24
     910:	08 95       	ret

00000912 <Read_Battery>:
     912:	80 e0       	ldi	r24, 0x00	; 0
     914:	0e 94 38 01 	call	0x270	; 0x270 <read_adc>
     918:	90 93 9e 04 	sts	0x049E, r25
     91c:	80 93 9d 04 	sts	0x049D, r24
     920:	20 91 8c 04 	lds	r18, 0x048C
     924:	30 91 8d 04 	lds	r19, 0x048D
     928:	82 17       	cp	r24, r18
     92a:	93 07       	cpc	r25, r19
     92c:	21 f1       	breq	.+72     	; 0x976 <Read_Battery+0x64>
     92e:	90 93 8d 04 	sts	0x048D, r25
     932:	80 93 8c 04 	sts	0x048C, r24
     936:	bc 01       	movw	r22, r24
     938:	80 e0       	ldi	r24, 0x00	; 0
     93a:	90 e0       	ldi	r25, 0x00	; 0
     93c:	0e 94 f1 0a 	call	0x15e2	; 0x15e2 <__floatunsisf>
     940:	20 e0       	ldi	r18, 0x00	; 0
     942:	30 e0       	ldi	r19, 0x00	; 0
     944:	40 ea       	ldi	r20, 0xA0	; 160
     946:	50 e4       	ldi	r21, 0x40	; 64
     948:	0e 94 57 0b 	call	0x16ae	; 0x16ae <__mulsf3>
     94c:	20 e0       	ldi	r18, 0x00	; 0
     94e:	30 e0       	ldi	r19, 0x00	; 0
     950:	4a e7       	ldi	r20, 0x7A	; 122
     952:	54 e4       	ldi	r21, 0x44	; 68
     954:	0e 94 57 0b 	call	0x16ae	; 0x16ae <__mulsf3>
     958:	20 e0       	ldi	r18, 0x00	; 0
     95a:	30 e0       	ldi	r19, 0x00	; 0
     95c:	40 e8       	ldi	r20, 0x80	; 128
     95e:	5a e3       	ldi	r21, 0x3A	; 58
     960:	0e 94 57 0b 	call	0x16ae	; 0x16ae <__mulsf3>
     964:	0e 94 c2 0a 	call	0x1584	; 0x1584 <__fixunssfsi>
     968:	70 93 90 04 	sts	0x0490, r23
     96c:	60 93 8f 04 	sts	0x048F, r22
     970:	cb 01       	movw	r24, r22
     972:	0c 94 ec 03 	jmp	0x7d8	; 0x7d8 <Print_Battery>
     976:	08 95       	ret

00000978 <Send_To_Bluetooth>:
     978:	80 91 93 04 	lds	r24, 0x0493
     97c:	81 11       	cpse	r24, r1
     97e:	0b c0       	rjmp	.+22     	; 0x996 <Send_To_Bluetooth+0x1e>
     980:	80 91 a7 04 	lds	r24, 0x04A7
     984:	90 91 a8 04 	lds	r25, 0x04A8
     988:	89 2b       	or	r24, r25
     98a:	d9 f4       	brne	.+54     	; 0x9c2 <Send_To_Bluetooth+0x4a>
     98c:	80 91 be 03 	lds	r24, 0x03BE
     990:	81 30       	cpi	r24, 0x01	; 1
     992:	b9 f4       	brne	.+46     	; 0x9c2 <Send_To_Bluetooth+0x4a>
     994:	0b c0       	rjmp	.+22     	; 0x9ac <Send_To_Bluetooth+0x34>
     996:	80 91 a7 04 	lds	r24, 0x04A7
     99a:	90 91 a8 04 	lds	r25, 0x04A8
     99e:	89 2b       	or	r24, r25
     9a0:	81 f4       	brne	.+32     	; 0x9c2 <Send_To_Bluetooth+0x4a>
     9a2:	80 91 be 03 	lds	r24, 0x03BE
     9a6:	81 30       	cpi	r24, 0x01	; 1
     9a8:	61 f4       	brne	.+24     	; 0x9c2 <Send_To_Bluetooth+0x4a>
     9aa:	8b e0       	ldi	r24, 0x0B	; 11
     9ac:	0e 94 1a 01 	call	0x234	; 0x234 <Send_Data>
     9b0:	84 e1       	ldi	r24, 0x14	; 20
     9b2:	90 e0       	ldi	r25, 0x00	; 0
     9b4:	90 93 a8 04 	sts	0x04A8, r25
     9b8:	80 93 a7 04 	sts	0x04A7, r24
     9bc:	82 e0       	ldi	r24, 0x02	; 2
     9be:	80 93 be 03 	sts	0x03BE, r24
     9c2:	80 91 94 04 	lds	r24, 0x0494
     9c6:	81 11       	cpse	r24, r1
     9c8:	0b c0       	rjmp	.+22     	; 0x9e0 <Send_To_Bluetooth+0x68>
     9ca:	80 91 a7 04 	lds	r24, 0x04A7
     9ce:	90 91 a8 04 	lds	r25, 0x04A8
     9d2:	89 2b       	or	r24, r25
     9d4:	d9 f4       	brne	.+54     	; 0xa0c <Send_To_Bluetooth+0x94>
     9d6:	80 91 be 03 	lds	r24, 0x03BE
     9da:	82 30       	cpi	r24, 0x02	; 2
     9dc:	b9 f4       	brne	.+46     	; 0xa0c <Send_To_Bluetooth+0x94>
     9de:	0b c0       	rjmp	.+22     	; 0x9f6 <Send_To_Bluetooth+0x7e>
     9e0:	80 91 a7 04 	lds	r24, 0x04A7
     9e4:	90 91 a8 04 	lds	r25, 0x04A8
     9e8:	89 2b       	or	r24, r25
     9ea:	81 f4       	brne	.+32     	; 0xa0c <Send_To_Bluetooth+0x94>
     9ec:	80 91 be 03 	lds	r24, 0x03BE
     9f0:	82 30       	cpi	r24, 0x02	; 2
     9f2:	61 f4       	brne	.+24     	; 0xa0c <Send_To_Bluetooth+0x94>
     9f4:	8c e0       	ldi	r24, 0x0C	; 12
     9f6:	0e 94 1a 01 	call	0x234	; 0x234 <Send_Data>
     9fa:	84 e1       	ldi	r24, 0x14	; 20
     9fc:	90 e0       	ldi	r25, 0x00	; 0
     9fe:	90 93 a8 04 	sts	0x04A8, r25
     a02:	80 93 a7 04 	sts	0x04A7, r24
     a06:	83 e0       	ldi	r24, 0x03	; 3
     a08:	80 93 be 03 	sts	0x03BE, r24
     a0c:	80 91 95 04 	lds	r24, 0x0495
     a10:	81 11       	cpse	r24, r1
     a12:	0b c0       	rjmp	.+22     	; 0xa2a <Send_To_Bluetooth+0xb2>
     a14:	80 91 a7 04 	lds	r24, 0x04A7
     a18:	90 91 a8 04 	lds	r25, 0x04A8
     a1c:	89 2b       	or	r24, r25
     a1e:	d9 f4       	brne	.+54     	; 0xa56 <Send_To_Bluetooth+0xde>
     a20:	80 91 be 03 	lds	r24, 0x03BE
     a24:	83 30       	cpi	r24, 0x03	; 3
     a26:	b9 f4       	brne	.+46     	; 0xa56 <Send_To_Bluetooth+0xde>
     a28:	0b c0       	rjmp	.+22     	; 0xa40 <Send_To_Bluetooth+0xc8>
     a2a:	80 91 a7 04 	lds	r24, 0x04A7
     a2e:	90 91 a8 04 	lds	r25, 0x04A8
     a32:	89 2b       	or	r24, r25
     a34:	81 f4       	brne	.+32     	; 0xa56 <Send_To_Bluetooth+0xde>
     a36:	80 91 be 03 	lds	r24, 0x03BE
     a3a:	83 30       	cpi	r24, 0x03	; 3
     a3c:	61 f4       	brne	.+24     	; 0xa56 <Send_To_Bluetooth+0xde>
     a3e:	8d e0       	ldi	r24, 0x0D	; 13
     a40:	0e 94 1a 01 	call	0x234	; 0x234 <Send_Data>
     a44:	84 e1       	ldi	r24, 0x14	; 20
     a46:	90 e0       	ldi	r25, 0x00	; 0
     a48:	90 93 a8 04 	sts	0x04A8, r25
     a4c:	80 93 a7 04 	sts	0x04A7, r24
     a50:	84 e0       	ldi	r24, 0x04	; 4
     a52:	80 93 be 03 	sts	0x03BE, r24
     a56:	80 91 96 04 	lds	r24, 0x0496
     a5a:	81 11       	cpse	r24, r1
     a5c:	0b c0       	rjmp	.+22     	; 0xa74 <Send_To_Bluetooth+0xfc>
     a5e:	80 91 a7 04 	lds	r24, 0x04A7
     a62:	90 91 a8 04 	lds	r25, 0x04A8
     a66:	89 2b       	or	r24, r25
     a68:	d9 f4       	brne	.+54     	; 0xaa0 <Send_To_Bluetooth+0x128>
     a6a:	80 91 be 03 	lds	r24, 0x03BE
     a6e:	84 30       	cpi	r24, 0x04	; 4
     a70:	b9 f4       	brne	.+46     	; 0xaa0 <Send_To_Bluetooth+0x128>
     a72:	0b c0       	rjmp	.+22     	; 0xa8a <Send_To_Bluetooth+0x112>
     a74:	80 91 a7 04 	lds	r24, 0x04A7
     a78:	90 91 a8 04 	lds	r25, 0x04A8
     a7c:	89 2b       	or	r24, r25
     a7e:	81 f4       	brne	.+32     	; 0xaa0 <Send_To_Bluetooth+0x128>
     a80:	80 91 be 03 	lds	r24, 0x03BE
     a84:	84 30       	cpi	r24, 0x04	; 4
     a86:	61 f4       	brne	.+24     	; 0xaa0 <Send_To_Bluetooth+0x128>
     a88:	8e e0       	ldi	r24, 0x0E	; 14
     a8a:	0e 94 1a 01 	call	0x234	; 0x234 <Send_Data>
     a8e:	84 e1       	ldi	r24, 0x14	; 20
     a90:	90 e0       	ldi	r25, 0x00	; 0
     a92:	90 93 a8 04 	sts	0x04A8, r25
     a96:	80 93 a7 04 	sts	0x04A7, r24
     a9a:	85 e0       	ldi	r24, 0x05	; 5
     a9c:	80 93 be 03 	sts	0x03BE, r24
     aa0:	80 91 97 04 	lds	r24, 0x0497
     aa4:	81 11       	cpse	r24, r1
     aa6:	1c c0       	rjmp	.+56     	; 0xae0 <Send_To_Bluetooth+0x168>
     aa8:	80 91 a7 04 	lds	r24, 0x04A7
     aac:	90 91 a8 04 	lds	r25, 0x04A8
     ab0:	89 2b       	or	r24, r25
     ab2:	11 f5       	brne	.+68     	; 0xaf8 <Send_To_Bluetooth+0x180>
     ab4:	80 91 be 03 	lds	r24, 0x03BE
     ab8:	85 30       	cpi	r24, 0x05	; 5
     aba:	f1 f4       	brne	.+60     	; 0xaf8 <Send_To_Bluetooth+0x180>
     abc:	0e 94 1a 01 	call	0x234	; 0x234 <Send_Data>
     ac0:	84 e1       	ldi	r24, 0x14	; 20
     ac2:	90 e0       	ldi	r25, 0x00	; 0
     ac4:	90 93 a8 04 	sts	0x04A8, r25
     ac8:	80 93 a7 04 	sts	0x04A7, r24
     acc:	80 91 ac 04 	lds	r24, 0x04AC
     ad0:	86 39       	cpi	r24, 0x96	; 150
     ad2:	11 f4       	brne	.+4      	; 0xad8 <Send_To_Bluetooth+0x160>
     ad4:	86 e0       	ldi	r24, 0x06	; 6
     ad6:	01 c0       	rjmp	.+2      	; 0xada <Send_To_Bluetooth+0x162>
     ad8:	81 e0       	ldi	r24, 0x01	; 1
     ada:	80 93 be 03 	sts	0x03BE, r24
     ade:	0c c0       	rjmp	.+24     	; 0xaf8 <Send_To_Bluetooth+0x180>
     ae0:	80 91 a7 04 	lds	r24, 0x04A7
     ae4:	90 91 a8 04 	lds	r25, 0x04A8
     ae8:	89 2b       	or	r24, r25
     aea:	31 f4       	brne	.+12     	; 0xaf8 <Send_To_Bluetooth+0x180>
     aec:	80 91 be 03 	lds	r24, 0x03BE
     af0:	85 30       	cpi	r24, 0x05	; 5
     af2:	11 f4       	brne	.+4      	; 0xaf8 <Send_To_Bluetooth+0x180>
     af4:	8f e0       	ldi	r24, 0x0F	; 15
     af6:	e2 cf       	rjmp	.-60     	; 0xabc <Send_To_Bluetooth+0x144>
     af8:	80 91 ac 04 	lds	r24, 0x04AC
     afc:	86 39       	cpi	r24, 0x96	; 150
     afe:	81 f4       	brne	.+32     	; 0xb20 <Send_To_Bluetooth+0x1a8>
     b00:	80 91 be 03 	lds	r24, 0x03BE
     b04:	86 30       	cpi	r24, 0x06	; 6
     b06:	61 f4       	brne	.+24     	; 0xb20 <Send_To_Bluetooth+0x1a8>
     b08:	8d e7       	ldi	r24, 0x7D	; 125
     b0a:	0e 94 1a 01 	call	0x234	; 0x234 <Send_Data>
     b0e:	81 e0       	ldi	r24, 0x01	; 1
     b10:	80 93 be 03 	sts	0x03BE, r24
     b14:	84 e1       	ldi	r24, 0x14	; 20
     b16:	90 e0       	ldi	r25, 0x00	; 0
     b18:	90 93 a8 04 	sts	0x04A8, r25
     b1c:	80 93 a7 04 	sts	0x04A7, r24
     b20:	08 95       	ret

00000b22 <Send_Battery_Bluetooth>:
     b22:	80 91 77 05 	lds	r24, 0x0577
     b26:	8a 30       	cpi	r24, 0x0A	; 10
     b28:	11 f4       	brne	.+4      	; 0xb2e <Send_Battery_Bluetooth+0xc>
     b2a:	8e e1       	ldi	r24, 0x1E	; 30
     b2c:	27 c0       	rjmp	.+78     	; 0xb7c <Send_Battery_Bluetooth+0x5a>
     b2e:	89 30       	cpi	r24, 0x09	; 9
     b30:	11 f4       	brne	.+4      	; 0xb36 <Send_Battery_Bluetooth+0x14>
     b32:	8d e1       	ldi	r24, 0x1D	; 29
     b34:	23 c0       	rjmp	.+70     	; 0xb7c <Send_Battery_Bluetooth+0x5a>
     b36:	88 30       	cpi	r24, 0x08	; 8
     b38:	11 f4       	brne	.+4      	; 0xb3e <Send_Battery_Bluetooth+0x1c>
     b3a:	8c e1       	ldi	r24, 0x1C	; 28
     b3c:	1f c0       	rjmp	.+62     	; 0xb7c <Send_Battery_Bluetooth+0x5a>
     b3e:	87 30       	cpi	r24, 0x07	; 7
     b40:	11 f4       	brne	.+4      	; 0xb46 <Send_Battery_Bluetooth+0x24>
     b42:	8b e1       	ldi	r24, 0x1B	; 27
     b44:	1b c0       	rjmp	.+54     	; 0xb7c <Send_Battery_Bluetooth+0x5a>
     b46:	86 30       	cpi	r24, 0x06	; 6
     b48:	11 f4       	brne	.+4      	; 0xb4e <Send_Battery_Bluetooth+0x2c>
     b4a:	8a e1       	ldi	r24, 0x1A	; 26
     b4c:	17 c0       	rjmp	.+46     	; 0xb7c <Send_Battery_Bluetooth+0x5a>
     b4e:	85 30       	cpi	r24, 0x05	; 5
     b50:	11 f4       	brne	.+4      	; 0xb56 <Send_Battery_Bluetooth+0x34>
     b52:	89 e1       	ldi	r24, 0x19	; 25
     b54:	13 c0       	rjmp	.+38     	; 0xb7c <Send_Battery_Bluetooth+0x5a>
     b56:	84 30       	cpi	r24, 0x04	; 4
     b58:	11 f4       	brne	.+4      	; 0xb5e <Send_Battery_Bluetooth+0x3c>
     b5a:	88 e1       	ldi	r24, 0x18	; 24
     b5c:	0f c0       	rjmp	.+30     	; 0xb7c <Send_Battery_Bluetooth+0x5a>
     b5e:	83 30       	cpi	r24, 0x03	; 3
     b60:	11 f4       	brne	.+4      	; 0xb66 <Send_Battery_Bluetooth+0x44>
     b62:	87 e1       	ldi	r24, 0x17	; 23
     b64:	0b c0       	rjmp	.+22     	; 0xb7c <Send_Battery_Bluetooth+0x5a>
     b66:	82 30       	cpi	r24, 0x02	; 2
     b68:	11 f4       	brne	.+4      	; 0xb6e <Send_Battery_Bluetooth+0x4c>
     b6a:	86 e1       	ldi	r24, 0x16	; 22
     b6c:	07 c0       	rjmp	.+14     	; 0xb7c <Send_Battery_Bluetooth+0x5a>
     b6e:	81 30       	cpi	r24, 0x01	; 1
     b70:	11 f4       	brne	.+4      	; 0xb76 <Send_Battery_Bluetooth+0x54>
     b72:	85 e1       	ldi	r24, 0x15	; 21
     b74:	03 c0       	rjmp	.+6      	; 0xb7c <Send_Battery_Bluetooth+0x5a>
     b76:	81 11       	cpse	r24, r1
     b78:	03 c0       	rjmp	.+6      	; 0xb80 <Send_Battery_Bluetooth+0x5e>
     b7a:	84 e1       	ldi	r24, 0x14	; 20
     b7c:	0e 94 1a 01 	call	0x234	; 0x234 <Send_Data>
     b80:	8f ec       	ldi	r24, 0xCF	; 207
     b82:	97 e0       	ldi	r25, 0x07	; 7
     b84:	01 97       	sbiw	r24, 0x01	; 1
     b86:	f1 f7       	brne	.-4      	; 0xb84 <Send_Battery_Bluetooth+0x62>
     b88:	00 c0       	rjmp	.+0      	; 0xb8a <Send_Battery_Bluetooth+0x68>
     b8a:	00 00       	nop
     b8c:	08 95       	ret

00000b8e <Competicao>:
     b8e:	cf 93       	push	r28
     b90:	df 93       	push	r29
     b92:	61 e0       	ldi	r22, 0x01	; 1
     b94:	81 e0       	ldi	r24, 0x01	; 1
     b96:	0e 94 e5 00 	call	0x1ca	; 0x1ca <lcd_gotoxy>
     b9a:	ce e0       	ldi	r28, 0x0E	; 14
     b9c:	d1 e0       	ldi	r29, 0x01	; 1
     b9e:	df 93       	push	r29
     ba0:	cf 93       	push	r28
     ba2:	0e 94 ec 0b 	call	0x17d8	; 0x17d8 <printf>
     ba6:	62 e0       	ldi	r22, 0x02	; 2
     ba8:	81 e0       	ldi	r24, 0x01	; 1
     baa:	0e 94 e5 00 	call	0x1ca	; 0x1ca <lcd_gotoxy>
     bae:	82 e8       	ldi	r24, 0x82	; 130
     bb0:	91 e0       	ldi	r25, 0x01	; 1
     bb2:	9f 93       	push	r25
     bb4:	8f 93       	push	r24
     bb6:	0e 94 ec 0b 	call	0x17d8	; 0x17d8 <printf>
     bba:	63 e0       	ldi	r22, 0x03	; 3
     bbc:	81 e0       	ldi	r24, 0x01	; 1
     bbe:	0e 94 e5 00 	call	0x1ca	; 0x1ca <lcd_gotoxy>
     bc2:	df 93       	push	r29
     bc4:	cf 93       	push	r28
     bc6:	0e 94 ec 0b 	call	0x17d8	; 0x17d8 <printf>
     bca:	5a 9a       	sbi	0x0b, 2	; 11
     bcc:	0f 90       	pop	r0
     bce:	0f 90       	pop	r0
     bd0:	0f 90       	pop	r0
     bd2:	0f 90       	pop	r0
     bd4:	0f 90       	pop	r0
     bd6:	0f 90       	pop	r0
     bd8:	8c e0       	ldi	r24, 0x0C	; 12
     bda:	df 91       	pop	r29
     bdc:	cf 91       	pop	r28
     bde:	0c 94 b5 00 	jmp	0x16a	; 0x16a <lcdCommand>

00000be2 <Gravar>:
     be2:	90 91 91 04 	lds	r25, 0x0491
     be6:	98 3c       	cpi	r25, 0xC8	; 200
     be8:	f8 f4       	brcc	.+62     	; 0xc28 <Gravar+0x46>
     bea:	29 2f       	mov	r18, r25
     bec:	30 e0       	ldi	r19, 0x00	; 0
     bee:	f9 01       	movw	r30, r18
     bf0:	ed 53       	subi	r30, 0x3D	; 61
     bf2:	fc 4f       	sbci	r31, 0xFC	; 252
     bf4:	80 83       	st	Z, r24
     bf6:	40 91 b8 03 	lds	r20, 0x03B8
     bfa:	50 91 b9 03 	lds	r21, 0x03B9
     bfe:	f9 01       	movw	r30, r18
     c00:	ee 0f       	add	r30, r30
     c02:	ff 1f       	adc	r31, r31
     c04:	ea 5d       	subi	r30, 0xDA	; 218
     c06:	fd 4f       	sbci	r31, 0xFD	; 253
     c08:	51 83       	std	Z+1, r21	; 0x01
     c0a:	40 83       	st	Z, r20
     c0c:	80 91 ad 04 	lds	r24, 0x04AD
     c10:	f9 01       	movw	r30, r18
     c12:	e1 55       	subi	r30, 0x51	; 81
     c14:	fb 4f       	sbci	r31, 0xFB	; 251
     c16:	80 83       	st	Z, r24
     c18:	80 91 a9 04 	lds	r24, 0x04A9
     c1c:	8f 5f       	subi	r24, 0xFF	; 255
     c1e:	80 93 a9 04 	sts	0x04A9, r24
     c22:	9f 5f       	subi	r25, 0xFF	; 255
     c24:	90 93 91 04 	sts	0x0491, r25
     c28:	08 95       	ret

00000c2a <Motores>:
     c2a:	cf 93       	push	r28
     c2c:	c8 2f       	mov	r28, r24
     c2e:	80 91 bb 03 	lds	r24, 0x03BB
     c32:	8c 17       	cp	r24, r28
     c34:	41 f0       	breq	.+16     	; 0xc46 <Motores+0x1c>
     c36:	90 91 bd 03 	lds	r25, 0x03BD
     c3a:	99 23       	and	r25, r25
     c3c:	21 f0       	breq	.+8      	; 0xc46 <Motores+0x1c>
     c3e:	90 91 c2 03 	lds	r25, 0x03C2
     c42:	99 23       	and	r25, r25
     c44:	29 f0       	breq	.+10     	; 0xc50 <Motores+0x26>
     c46:	90 91 92 04 	lds	r25, 0x0492
     c4a:	92 50       	subi	r25, 0x02	; 2
     c4c:	92 30       	cpi	r25, 0x02	; 2
     c4e:	48 f4       	brcc	.+18     	; 0xc62 <Motores+0x38>
     c50:	0e 94 f1 05 	call	0xbe2	; 0xbe2 <Gravar>
     c54:	10 92 b9 03 	sts	0x03B9, r1
     c58:	10 92 b8 03 	sts	0x03B8, r1
     c5c:	10 92 92 04 	sts	0x0492, r1
     c60:	1b c0       	rjmp	.+54     	; 0xc98 <Motores+0x6e>
     c62:	80 91 bd 03 	lds	r24, 0x03BD
     c66:	81 11       	cpse	r24, r1
     c68:	07 c0       	rjmp	.+14     	; 0xc78 <Motores+0x4e>
     c6a:	80 91 c2 03 	lds	r24, 0x03C2
     c6e:	81 11       	cpse	r24, r1
     c70:	13 c0       	rjmp	.+38     	; 0xc98 <Motores+0x6e>
     c72:	10 92 91 04 	sts	0x0491, r1
     c76:	10 c0       	rjmp	.+32     	; 0xc98 <Motores+0x6e>
     c78:	80 91 a1 04 	lds	r24, 0x04A1
     c7c:	90 91 a2 04 	lds	r25, 0x04A2
     c80:	89 2b       	or	r24, r25
     c82:	51 f4       	brne	.+20     	; 0xc98 <Motores+0x6e>
     c84:	95 b1       	in	r25, 0x05	; 5
     c86:	81 e0       	ldi	r24, 0x01	; 1
     c88:	89 27       	eor	r24, r25
     c8a:	85 b9       	out	0x05, r24	; 5
     c8c:	8c ed       	ldi	r24, 0xDC	; 220
     c8e:	95 e0       	ldi	r25, 0x05	; 5
     c90:	90 93 a2 04 	sts	0x04A2, r25
     c94:	80 93 a1 04 	sts	0x04A1, r24
     c98:	4c 2f       	mov	r20, r28
     c9a:	50 e0       	ldi	r21, 0x00	; 0
     c9c:	fa 01       	movw	r30, r20
     c9e:	74 97       	sbiw	r30, 0x14	; 20
     ca0:	ec 30       	cpi	r30, 0x0C	; 12
     ca2:	f1 05       	cpc	r31, r1
     ca4:	08 f0       	brcs	.+2      	; 0xca8 <Motores+0x7e>
     ca6:	82 c0       	rjmp	.+260    	; 0xdac <Motores+0x182>
     ca8:	ec 5c       	subi	r30, 0xCC	; 204
     caa:	ff 4f       	sbci	r31, 0xFF	; 255
     cac:	0c 94 bc 0a 	jmp	0x1578	; 0x1578 <__tablejump2__>
     cb0:	85 b1       	in	r24, 0x05	; 5
     cb2:	89 7f       	andi	r24, 0xF9	; 249
     cb4:	85 b9       	out	0x05, r24	; 5
     cb6:	80 91 ad 04 	lds	r24, 0x04AD
     cba:	27 c0       	rjmp	.+78     	; 0xd0a <Motores+0xe0>
     cbc:	29 98       	cbi	0x05, 1	; 5
     cbe:	8f ef       	ldi	r24, 0xFF	; 255
     cc0:	80 93 b3 00 	sts	0x00B3, r24
     cc4:	2a 9a       	sbi	0x05, 2	; 5
     cc6:	80 91 ad 04 	lds	r24, 0x04AD
     cca:	85 3f       	cpi	r24, 0xF5	; 245
     ccc:	00 f5       	brcc	.+64     	; 0xd0e <Motores+0xe4>
     cce:	80 91 ad 04 	lds	r24, 0x04AD
     cd2:	86 5f       	subi	r24, 0xF6	; 246
     cd4:	80 93 b4 00 	sts	0x00B4, r24
     cd8:	70 c0       	rjmp	.+224    	; 0xdba <Motores+0x190>
     cda:	85 b1       	in	r24, 0x05	; 5
     cdc:	89 7f       	andi	r24, 0xF9	; 249
     cde:	85 b9       	out	0x05, r24	; 5
     ce0:	80 91 ad 04 	lds	r24, 0x04AD
     ce4:	90 91 bf 03 	lds	r25, 0x03BF
     ce8:	0f c0       	rjmp	.+30     	; 0xd08 <Motores+0xde>
     cea:	85 b1       	in	r24, 0x05	; 5
     cec:	89 7f       	andi	r24, 0xF9	; 249
     cee:	85 b9       	out	0x05, r24	; 5
     cf0:	80 91 ad 04 	lds	r24, 0x04AD
     cf4:	90 91 ae 04 	lds	r25, 0x04AE
     cf8:	07 c0       	rjmp	.+14     	; 0xd08 <Motores+0xde>
     cfa:	85 b1       	in	r24, 0x05	; 5
     cfc:	89 7f       	andi	r24, 0xF9	; 249
     cfe:	85 b9       	out	0x05, r24	; 5
     d00:	80 91 ad 04 	lds	r24, 0x04AD
     d04:	90 91 bc 03 	lds	r25, 0x03BC
     d08:	89 1b       	sub	r24, r25
     d0a:	80 93 b3 00 	sts	0x00B3, r24
     d0e:	80 91 ad 04 	lds	r24, 0x04AD
     d12:	e0 cf       	rjmp	.-64     	; 0xcd4 <Motores+0xaa>
     d14:	2a 98       	cbi	0x05, 2	; 5
     d16:	80 91 ad 04 	lds	r24, 0x04AD
     d1a:	85 3f       	cpi	r24, 0xF5	; 245
     d1c:	20 f4       	brcc	.+8      	; 0xd26 <Motores+0xfc>
     d1e:	80 91 ad 04 	lds	r24, 0x04AD
     d22:	86 5f       	subi	r24, 0xF6	; 246
     d24:	02 c0       	rjmp	.+4      	; 0xd2a <Motores+0x100>
     d26:	80 91 ad 04 	lds	r24, 0x04AD
     d2a:	80 93 b3 00 	sts	0x00B3, r24
     d2e:	8f ef       	ldi	r24, 0xFF	; 255
     d30:	80 93 b4 00 	sts	0x00B4, r24
     d34:	29 9a       	sbi	0x05, 1	; 5
     d36:	41 c0       	rjmp	.+130    	; 0xdba <Motores+0x190>
     d38:	85 b1       	in	r24, 0x05	; 5
     d3a:	89 7f       	andi	r24, 0xF9	; 249
     d3c:	85 b9       	out	0x05, r24	; 5
     d3e:	80 91 ad 04 	lds	r24, 0x04AD
     d42:	80 93 b3 00 	sts	0x00B3, r24
     d46:	80 91 ad 04 	lds	r24, 0x04AD
     d4a:	90 91 bf 03 	lds	r25, 0x03BF
     d4e:	17 c0       	rjmp	.+46     	; 0xd7e <Motores+0x154>
     d50:	85 b1       	in	r24, 0x05	; 5
     d52:	89 7f       	andi	r24, 0xF9	; 249
     d54:	85 b9       	out	0x05, r24	; 5
     d56:	80 91 ad 04 	lds	r24, 0x04AD
     d5a:	80 93 b3 00 	sts	0x00B3, r24
     d5e:	80 91 ad 04 	lds	r24, 0x04AD
     d62:	90 91 ae 04 	lds	r25, 0x04AE
     d66:	0b c0       	rjmp	.+22     	; 0xd7e <Motores+0x154>
     d68:	85 b1       	in	r24, 0x05	; 5
     d6a:	89 7f       	andi	r24, 0xF9	; 249
     d6c:	85 b9       	out	0x05, r24	; 5
     d6e:	80 91 ad 04 	lds	r24, 0x04AD
     d72:	80 93 b3 00 	sts	0x00B3, r24
     d76:	80 91 ad 04 	lds	r24, 0x04AD
     d7a:	90 91 bc 03 	lds	r25, 0x03BC
     d7e:	89 1b       	sub	r24, r25
     d80:	a9 cf       	rjmp	.-174    	; 0xcd4 <Motores+0xaa>
     d82:	10 92 b3 00 	sts	0x00B3, r1
     d86:	10 92 b4 00 	sts	0x00B4, r1
     d8a:	0c c0       	rjmp	.+24     	; 0xda4 <Motores+0x17a>
     d8c:	10 92 b3 00 	sts	0x00B3, r1
     d90:	10 92 b4 00 	sts	0x00B4, r1
     d94:	85 b1       	in	r24, 0x05	; 5
     d96:	89 7f       	andi	r24, 0xF9	; 249
     d98:	07 c0       	rjmp	.+14     	; 0xda8 <Motores+0x17e>
     d9a:	8f ef       	ldi	r24, 0xFF	; 255
     d9c:	80 93 b3 00 	sts	0x00B3, r24
     da0:	80 93 b4 00 	sts	0x00B4, r24
     da4:	85 b1       	in	r24, 0x05	; 5
     da6:	86 60       	ori	r24, 0x06	; 6
     da8:	85 b9       	out	0x05, r24	; 5
     daa:	07 c0       	rjmp	.+14     	; 0xdba <Motores+0x190>
     dac:	85 b1       	in	r24, 0x05	; 5
     dae:	89 7f       	andi	r24, 0xF9	; 249
     db0:	85 b9       	out	0x05, r24	; 5
     db2:	10 92 b3 00 	sts	0x00B3, r1
     db6:	10 92 b4 00 	sts	0x00B4, r1
     dba:	c0 93 bb 03 	sts	0x03BB, r28
     dbe:	cf 91       	pop	r28
     dc0:	08 95       	ret

00000dc2 <Init>:
     dc2:	e1 eb       	ldi	r30, 0xB1	; 177
     dc4:	f0 e0       	ldi	r31, 0x00	; 0
     dc6:	10 82       	st	Z, r1
     dc8:	87 b3       	in	r24, 0x17	; 23
     dca:	87 60       	ori	r24, 0x07	; 7
     dcc:	87 bb       	out	0x17, r24	; 23
     dce:	83 ea       	ldi	r24, 0xA3	; 163
     dd0:	80 93 b0 00 	sts	0x00B0, r24
     dd4:	80 81       	ld	r24, Z
     dd6:	88 60       	ori	r24, 0x08	; 8
     dd8:	80 83       	st	Z, r24
     dda:	10 92 b2 00 	sts	0x00B2, r1
     dde:	98 ec       	ldi	r25, 0xC8	; 200
     de0:	90 93 b3 00 	sts	0x00B3, r25
     de4:	90 93 b4 00 	sts	0x00B4, r25
     de8:	10 92 70 00 	sts	0x0070, r1
     dec:	81 e0       	ldi	r24, 0x01	; 1
     dee:	80 83       	st	Z, r24
     df0:	e1 e8       	ldi	r30, 0x81	; 129
     df2:	f0 e0       	ldi	r31, 0x00	; 0
     df4:	10 82       	st	Z, r1
     df6:	27 e2       	ldi	r18, 0x27	; 39
     df8:	26 bb       	out	0x16, r18	; 22
     dfa:	10 92 80 00 	sts	0x0080, r1
     dfe:	20 e8       	ldi	r18, 0x80	; 128
     e00:	31 ec       	ldi	r19, 0xC1	; 193
     e02:	30 93 85 00 	sts	0x0085, r19
     e06:	20 93 84 00 	sts	0x0084, r18
     e0a:	80 93 6f 00 	sts	0x006F, r24
     e0e:	80 83       	st	Z, r24
     e10:	78 94       	sei
     e12:	27 b1       	in	r18, 0x07	; 7
     e14:	21 7c       	andi	r18, 0xC1	; 193
     e16:	27 b9       	out	0x07, r18	; 7
     e18:	28 b1       	in	r18, 0x08	; 8
     e1a:	2e 63       	ori	r18, 0x3E	; 62
     e1c:	28 b9       	out	0x08, r18	; 8
     e1e:	52 9a       	sbi	0x0a, 2	; 10
     e20:	20 9a       	sbi	0x04, 0	; 4
     e22:	24 b1       	in	r18, 0x04	; 4
     e24:	2e 60       	ori	r18, 0x0E	; 14
     e26:	24 b9       	out	0x04, r18	; 4
     e28:	2f ef       	ldi	r18, 0xFF	; 255
     e2a:	2a b9       	out	0x0a, r18	; 10
     e2c:	2b 9a       	sbi	0x05, 3	; 5
     e2e:	5b 9a       	sbi	0x0b, 3	; 11
     e30:	90 93 ad 04 	sts	0x04AD, r25
     e34:	9f e0       	ldi	r25, 0x0F	; 15
     e36:	90 93 bf 03 	sts	0x03BF, r25
     e3a:	94 e1       	ldi	r25, 0x14	; 20
     e3c:	90 93 ae 04 	sts	0x04AE, r25
     e40:	9c e1       	ldi	r25, 0x1C	; 28
     e42:	90 93 bc 03 	sts	0x03BC, r25
     e46:	80 93 8e 04 	sts	0x048E, r24
     e4a:	87 e4       	ldi	r24, 0x47	; 71
     e4c:	0e 94 1a 01 	call	0x234	; 0x234 <Send_Data>
     e50:	8d e1       	ldi	r24, 0x1D	; 29
     e52:	0c 94 15 06 	jmp	0xc2a	; 0xc2a <Motores>

00000e56 <Calculo>:
     e56:	50 91 a3 04 	lds	r21, 0x04A3
     e5a:	40 91 93 04 	lds	r20, 0x0493
     e5e:	30 91 94 04 	lds	r19, 0x0494
     e62:	90 91 95 04 	lds	r25, 0x0495
     e66:	80 91 96 04 	lds	r24, 0x0496
     e6a:	20 91 97 04 	lds	r18, 0x0497
     e6e:	51 11       	cpse	r21, r1
     e70:	14 c0       	rjmp	.+40     	; 0xe9a <Calculo+0x44>
     e72:	44 23       	and	r20, r20
     e74:	91 f0       	breq	.+36     	; 0xe9a <Calculo+0x44>
     e76:	33 23       	and	r19, r19
     e78:	81 f0       	breq	.+32     	; 0xe9a <Calculo+0x44>
     e7a:	99 23       	and	r25, r25
     e7c:	81 f0       	breq	.+32     	; 0xe9e <Calculo+0x48>
     e7e:	88 23       	and	r24, r24
     e80:	61 f0       	breq	.+24     	; 0xe9a <Calculo+0x44>
     e82:	22 23       	and	r18, r18
     e84:	51 f0       	breq	.+20     	; 0xe9a <Calculo+0x44>
     e86:	88 eb       	ldi	r24, 0xB8	; 184
     e88:	9b e0       	ldi	r25, 0x0B	; 11
     e8a:	90 93 25 02 	sts	0x0225, r25
     e8e:	80 93 24 02 	sts	0x0224, r24
     e92:	81 e0       	ldi	r24, 0x01	; 1
     e94:	80 93 a3 04 	sts	0x04A3, r24
     e98:	08 95       	ret
     e9a:	91 11       	cpse	r25, r1
     e9c:	0a c0       	rjmp	.+20     	; 0xeb2 <Calculo+0x5c>
     e9e:	44 23       	and	r20, r20
     ea0:	41 f0       	breq	.+16     	; 0xeb2 <Calculo+0x5c>
     ea2:	33 23       	and	r19, r19
     ea4:	41 f0       	breq	.+16     	; 0xeb6 <Calculo+0x60>
     ea6:	88 23       	and	r24, r24
     ea8:	21 f0       	breq	.+8      	; 0xeb2 <Calculo+0x5c>
     eaa:	22 23       	and	r18, r18
     eac:	11 f0       	breq	.+4      	; 0xeb2 <Calculo+0x5c>
     eae:	84 e1       	ldi	r24, 0x14	; 20
     eb0:	0b c0       	rjmp	.+22     	; 0xec8 <Calculo+0x72>
     eb2:	31 11       	cpse	r19, r1
     eb4:	0e c0       	rjmp	.+28     	; 0xed2 <Calculo+0x7c>
     eb6:	44 23       	and	r20, r20
     eb8:	c1 f0       	breq	.+48     	; 0xeea <Calculo+0x94>
     eba:	99 23       	and	r25, r25
     ebc:	51 f0       	breq	.+20     	; 0xed2 <Calculo+0x7c>
     ebe:	88 23       	and	r24, r24
     ec0:	41 f0       	breq	.+16     	; 0xed2 <Calculo+0x7c>
     ec2:	22 23       	and	r18, r18
     ec4:	31 f0       	breq	.+12     	; 0xed2 <Calculo+0x7c>
     ec6:	87 e1       	ldi	r24, 0x17	; 23
     ec8:	0e 94 15 06 	call	0xc2a	; 0xc2a <Motores>
     ecc:	10 92 a3 04 	sts	0x04A3, r1
     ed0:	08 95       	ret
     ed2:	41 11       	cpse	r20, r1
     ed4:	0a c0       	rjmp	.+20     	; 0xeea <Calculo+0x94>
     ed6:	33 23       	and	r19, r19
     ed8:	41 f0       	breq	.+16     	; 0xeea <Calculo+0x94>
     eda:	99 23       	and	r25, r25
     edc:	31 f0       	breq	.+12     	; 0xeea <Calculo+0x94>
     ede:	88 23       	and	r24, r24
     ee0:	81 f0       	breq	.+32     	; 0xf02 <Calculo+0xac>
     ee2:	22 23       	and	r18, r18
     ee4:	11 f0       	breq	.+4      	; 0xeea <Calculo+0x94>
     ee6:	85 e1       	ldi	r24, 0x15	; 21
     ee8:	ef cf       	rjmp	.-34     	; 0xec8 <Calculo+0x72>
     eea:	81 11       	cpse	r24, r1
     eec:	0a c0       	rjmp	.+20     	; 0xf02 <Calculo+0xac>
     eee:	44 23       	and	r20, r20
     ef0:	41 f0       	breq	.+16     	; 0xf02 <Calculo+0xac>
     ef2:	33 23       	and	r19, r19
     ef4:	31 f0       	breq	.+12     	; 0xf02 <Calculo+0xac>
     ef6:	99 23       	and	r25, r25
     ef8:	21 f0       	breq	.+8      	; 0xf02 <Calculo+0xac>
     efa:	22 23       	and	r18, r18
     efc:	21 f0       	breq	.+8      	; 0xf06 <Calculo+0xb0>
     efe:	8a e1       	ldi	r24, 0x1A	; 26
     f00:	e3 cf       	rjmp	.-58     	; 0xec8 <Calculo+0x72>
     f02:	21 11       	cpse	r18, r1
     f04:	08 c0       	rjmp	.+16     	; 0xf16 <Calculo+0xc0>
     f06:	44 23       	and	r20, r20
     f08:	d9 f0       	breq	.+54     	; 0xf40 <Calculo+0xea>
     f0a:	33 23       	and	r19, r19
     f0c:	29 f1       	breq	.+74     	; 0xf58 <Calculo+0x102>
     f0e:	99 23       	and	r25, r25
     f10:	61 f1       	breq	.+88     	; 0xf6a <Calculo+0x114>
     f12:	89 e1       	ldi	r24, 0x19	; 25
     f14:	d9 cf       	rjmp	.-78     	; 0xec8 <Calculo+0x72>
     f16:	99 23       	and	r25, r25
     f18:	39 f0       	breq	.+14     	; 0xf28 <Calculo+0xd2>
     f1a:	41 11       	cpse	r20, r1
     f1c:	2b c0       	rjmp	.+86     	; 0xf74 <Calculo+0x11e>
     f1e:	31 11       	cpse	r19, r1
     f20:	29 c0       	rjmp	.+82     	; 0xf74 <Calculo+0x11e>
     f22:	88 23       	and	r24, r24
     f24:	29 f1       	breq	.+74     	; 0xf70 <Calculo+0x11a>
     f26:	10 c0       	rjmp	.+32     	; 0xf48 <Calculo+0xf2>
     f28:	44 23       	and	r20, r20
     f2a:	61 f0       	breq	.+24     	; 0xf44 <Calculo+0xee>
     f2c:	31 11       	cpse	r19, r1
     f2e:	04 c0       	rjmp	.+8      	; 0xf38 <Calculo+0xe2>
     f30:	88 23       	and	r24, r24
     f32:	01 f1       	breq	.+64     	; 0xf74 <Calculo+0x11e>
     f34:	86 e1       	ldi	r24, 0x16	; 22
     f36:	c8 cf       	rjmp	.-112    	; 0xec8 <Calculo+0x72>
     f38:	81 11       	cpse	r24, r1
     f3a:	1c c0       	rjmp	.+56     	; 0xf74 <Calculo+0x11e>
     f3c:	8c e1       	ldi	r24, 0x1C	; 28
     f3e:	c4 cf       	rjmp	.-120    	; 0xec8 <Calculo+0x72>
     f40:	91 11       	cpse	r25, r1
     f42:	0d c0       	rjmp	.+26     	; 0xf5e <Calculo+0x108>
     f44:	31 11       	cpse	r19, r1
     f46:	03 c0       	rjmp	.+6      	; 0xf4e <Calculo+0xf8>
     f48:	22 23       	and	r18, r18
     f4a:	a1 f0       	breq	.+40     	; 0xf74 <Calculo+0x11e>
     f4c:	cc cf       	rjmp	.-104    	; 0xee6 <Calculo+0x90>
     f4e:	88 23       	and	r24, r24
     f50:	89 f0       	breq	.+34     	; 0xf74 <Calculo+0x11e>
     f52:	21 11       	cpse	r18, r1
     f54:	0f c0       	rjmp	.+30     	; 0xf74 <Calculo+0x11e>
     f56:	ab cf       	rjmp	.-170    	; 0xeae <Calculo+0x58>
     f58:	91 11       	cpse	r25, r1
     f5a:	0c c0       	rjmp	.+24     	; 0xf74 <Calculo+0x11e>
     f5c:	03 c0       	rjmp	.+6      	; 0xf64 <Calculo+0x10e>
     f5e:	33 23       	and	r19, r19
     f60:	01 f3       	breq	.-64     	; 0xf22 <Calculo+0xcc>
     f62:	08 95       	ret
     f64:	81 11       	cpse	r24, r1
     f66:	06 c0       	rjmp	.+12     	; 0xf74 <Calculo+0x11e>
     f68:	d4 cf       	rjmp	.-88     	; 0xf12 <Calculo+0xbc>
     f6a:	88 23       	and	r24, r24
     f6c:	91 f2       	breq	.-92     	; 0xf12 <Calculo+0xbc>
     f6e:	08 95       	ret
     f70:	99 23       	and	r25, r25
     f72:	51 f3       	breq	.-44     	; 0xf48 <Calculo+0xf2>
     f74:	08 95       	ret

00000f76 <Modo_Stop>:
     f76:	8d e1       	ldi	r24, 0x1D	; 29
     f78:	0e 94 15 06 	call	0xc2a	; 0xc2a <Motores>
     f7c:	95 b1       	in	r25, 0x05	; 5
     f7e:	81 e0       	ldi	r24, 0x01	; 1
     f80:	89 27       	eor	r24, r25
     f82:	85 b9       	out	0x05, r24	; 5
     f84:	5a 98       	cbi	0x0b, 2	; 11
     f86:	80 91 a7 04 	lds	r24, 0x04A7
     f8a:	90 91 a8 04 	lds	r25, 0x04A8
     f8e:	89 2b       	or	r24, r25
     f90:	49 f4       	brne	.+18     	; 0xfa4 <Modo_Stop+0x2e>
     f92:	8e e7       	ldi	r24, 0x7E	; 126
     f94:	0e 94 1a 01 	call	0x234	; 0x234 <Send_Data>
     f98:	84 e1       	ldi	r24, 0x14	; 20
     f9a:	90 e0       	ldi	r25, 0x00	; 0
     f9c:	90 93 a8 04 	sts	0x04A8, r25
     fa0:	80 93 a7 04 	sts	0x04A7, r24
     fa4:	08 95       	ret

00000fa6 <Modo_Perdido>:
     fa6:	8d e1       	ldi	r24, 0x1D	; 29
     fa8:	0e 94 15 06 	call	0xc2a	; 0xc2a <Motores>
     fac:	5a 98       	cbi	0x0b, 2	; 11
     fae:	81 e0       	ldi	r24, 0x01	; 1
     fb0:	0e 94 b5 00 	call	0x16a	; 0x16a <lcdCommand>
     fb4:	61 e0       	ldi	r22, 0x01	; 1
     fb6:	81 e0       	ldi	r24, 0x01	; 1
     fb8:	0e 94 e5 00 	call	0x1ca	; 0x1ca <lcd_gotoxy>
     fbc:	87 e9       	ldi	r24, 0x97	; 151
     fbe:	91 e0       	ldi	r25, 0x01	; 1
     fc0:	9f 93       	push	r25
     fc2:	8f 93       	push	r24
     fc4:	0e 94 ec 0b 	call	0x17d8	; 0x17d8 <printf>
     fc8:	62 e0       	ldi	r22, 0x02	; 2
     fca:	81 e0       	ldi	r24, 0x01	; 1
     fcc:	0e 94 e5 00 	call	0x1ca	; 0x1ca <lcd_gotoxy>
     fd0:	84 ea       	ldi	r24, 0xA4	; 164
     fd2:	91 e0       	ldi	r25, 0x01	; 1
     fd4:	9f 93       	push	r25
     fd6:	8f 93       	push	r24
     fd8:	0e 94 ec 0b 	call	0x17d8	; 0x17d8 <printf>
     fdc:	81 e0       	ldi	r24, 0x01	; 1
     fde:	80 93 aa 04 	sts	0x04AA, r24
     fe2:	84 e6       	ldi	r24, 0x64	; 100
     fe4:	90 e0       	ldi	r25, 0x00	; 0
     fe6:	90 93 a0 04 	sts	0x04A0, r25
     fea:	80 93 9f 04 	sts	0x049F, r24
     fee:	8a e7       	ldi	r24, 0x7A	; 122
     ff0:	0e 94 1a 01 	call	0x234	; 0x234 <Send_Data>
     ff4:	8f e3       	ldi	r24, 0x3F	; 63
     ff6:	9f e1       	ldi	r25, 0x1F	; 31
     ff8:	01 97       	sbiw	r24, 0x01	; 1
     ffa:	f1 f7       	brne	.-4      	; 0xff8 <Modo_Perdido+0x52>
     ffc:	00 c0       	rjmp	.+0      	; 0xffe <Modo_Perdido+0x58>
     ffe:	00 00       	nop
    1000:	0f 90       	pop	r0
    1002:	0f 90       	pop	r0
    1004:	0f 90       	pop	r0
    1006:	0f 90       	pop	r0
    1008:	08 95       	ret

0000100a <Bateria_Fraca>:
    100a:	cf 93       	push	r28
    100c:	df 93       	push	r29
    100e:	80 91 ba 03 	lds	r24, 0x03BA
    1012:	81 11       	cpse	r24, r1
    1014:	3b c0       	rjmp	.+118    	; 0x108c <Bateria_Fraca+0x82>
    1016:	61 e0       	ldi	r22, 0x01	; 1
    1018:	81 e0       	ldi	r24, 0x01	; 1
    101a:	0e 94 e5 00 	call	0x1ca	; 0x1ca <lcd_gotoxy>
    101e:	ce e0       	ldi	r28, 0x0E	; 14
    1020:	d1 e0       	ldi	r29, 0x01	; 1
    1022:	df 93       	push	r29
    1024:	cf 93       	push	r28
    1026:	0e 94 ec 0b 	call	0x17d8	; 0x17d8 <printf>
    102a:	62 e0       	ldi	r22, 0x02	; 2
    102c:	81 e0       	ldi	r24, 0x01	; 1
    102e:	0e 94 e5 00 	call	0x1ca	; 0x1ca <lcd_gotoxy>
    1032:	85 eb       	ldi	r24, 0xB5	; 181
    1034:	91 e0       	ldi	r25, 0x01	; 1
    1036:	9f 93       	push	r25
    1038:	8f 93       	push	r24
    103a:	0e 94 ec 0b 	call	0x17d8	; 0x17d8 <printf>
    103e:	63 e0       	ldi	r22, 0x03	; 3
    1040:	81 e0       	ldi	r24, 0x01	; 1
    1042:	0e 94 e5 00 	call	0x1ca	; 0x1ca <lcd_gotoxy>
    1046:	df 93       	push	r29
    1048:	cf 93       	push	r28
    104a:	0e 94 ec 0b 	call	0x17d8	; 0x17d8 <printf>
    104e:	64 e0       	ldi	r22, 0x04	; 4
    1050:	81 e0       	ldi	r24, 0x01	; 1
    1052:	0e 94 e5 00 	call	0x1ca	; 0x1ca <lcd_gotoxy>
    1056:	89 ec       	ldi	r24, 0xC9	; 201
    1058:	91 e0       	ldi	r25, 0x01	; 1
    105a:	9f 93       	push	r25
    105c:	8f 93       	push	r24
    105e:	0e 94 ec 0b 	call	0x17d8	; 0x17d8 <printf>
    1062:	8d e1       	ldi	r24, 0x1D	; 29
    1064:	0e 94 15 06 	call	0xc2a	; 0xc2a <Motores>
    1068:	81 e0       	ldi	r24, 0x01	; 1
    106a:	80 93 ba 03 	sts	0x03BA, r24
    106e:	5a 98       	cbi	0x0b, 2	; 11
    1070:	28 98       	cbi	0x05, 0	; 5
    1072:	8d b7       	in	r24, 0x3d	; 61
    1074:	9e b7       	in	r25, 0x3e	; 62
    1076:	08 96       	adiw	r24, 0x08	; 8
    1078:	0f b6       	in	r0, 0x3f	; 63
    107a:	f8 94       	cli
    107c:	9e bf       	out	0x3e, r25	; 62
    107e:	0f be       	out	0x3f, r0	; 63
    1080:	8d bf       	out	0x3d, r24	; 61
    1082:	8c e0       	ldi	r24, 0x0C	; 12
    1084:	df 91       	pop	r29
    1086:	cf 91       	pop	r28
    1088:	0c 94 b5 00 	jmp	0x16a	; 0x16a <lcdCommand>
    108c:	80 91 a1 04 	lds	r24, 0x04A1
    1090:	90 91 a2 04 	lds	r25, 0x04A2
    1094:	89 2b       	or	r24, r25
    1096:	71 f4       	brne	.+28     	; 0x10b4 <Bateria_Fraca+0xaa>
    1098:	9b b1       	in	r25, 0x0b	; 11
    109a:	84 e0       	ldi	r24, 0x04	; 4
    109c:	89 27       	eor	r24, r25
    109e:	8b b9       	out	0x0b, r24	; 11
    10a0:	95 b1       	in	r25, 0x05	; 5
    10a2:	81 e0       	ldi	r24, 0x01	; 1
    10a4:	89 27       	eor	r24, r25
    10a6:	85 b9       	out	0x05, r24	; 5
    10a8:	8c eb       	ldi	r24, 0xBC	; 188
    10aa:	92 e0       	ldi	r25, 0x02	; 2
    10ac:	90 93 a2 04 	sts	0x04A2, r25
    10b0:	80 93 a1 04 	sts	0x04A1, r24
    10b4:	df 91       	pop	r29
    10b6:	cf 91       	pop	r28
    10b8:	08 95       	ret

000010ba <Reproduzir>:
    10ba:	80 91 91 04 	lds	r24, 0x0491
    10be:	90 91 a9 04 	lds	r25, 0x04A9
    10c2:	89 17       	cp	r24, r25
    10c4:	f8 f4       	brcc	.+62     	; 0x1104 <Reproduzir+0x4a>
    10c6:	90 e0       	ldi	r25, 0x00	; 0
    10c8:	fc 01       	movw	r30, r24
    10ca:	e1 55       	subi	r30, 0x51	; 81
    10cc:	fb 4f       	sbci	r31, 0xFB	; 251
    10ce:	20 81       	ld	r18, Z
    10d0:	20 93 ad 04 	sts	0x04AD, r18
    10d4:	fc 01       	movw	r30, r24
    10d6:	ed 53       	subi	r30, 0x3D	; 61
    10d8:	fc 4f       	sbci	r31, 0xFC	; 252
    10da:	80 81       	ld	r24, Z
    10dc:	0e 94 15 06 	call	0xc2a	; 0xc2a <Motores>
    10e0:	80 91 91 04 	lds	r24, 0x0491
    10e4:	e8 2f       	mov	r30, r24
    10e6:	f0 e0       	ldi	r31, 0x00	; 0
    10e8:	ee 0f       	add	r30, r30
    10ea:	ff 1f       	adc	r31, r31
    10ec:	ea 5d       	subi	r30, 0xDA	; 218
    10ee:	fd 4f       	sbci	r31, 0xFD	; 253
    10f0:	20 81       	ld	r18, Z
    10f2:	31 81       	ldd	r19, Z+1	; 0x01
    10f4:	30 93 a5 04 	sts	0x04A5, r19
    10f8:	20 93 a4 04 	sts	0x04A4, r18
    10fc:	8f 5f       	subi	r24, 0xFF	; 255
    10fe:	80 93 91 04 	sts	0x0491, r24
    1102:	08 95       	ret
    1104:	81 e0       	ldi	r24, 0x01	; 1
    1106:	80 93 98 04 	sts	0x0498, r24
    110a:	08 95       	ret

0000110c <Init_Reproducao>:
    110c:	cf 93       	push	r28
    110e:	df 93       	push	r29
    1110:	10 92 91 04 	sts	0x0491, r1
    1114:	80 91 26 02 	lds	r24, 0x0226
    1118:	90 91 27 02 	lds	r25, 0x0227
    111c:	90 93 a5 04 	sts	0x04A5, r25
    1120:	80 93 a4 04 	sts	0x04A4, r24
    1124:	80 91 af 04 	lds	r24, 0x04AF
    1128:	80 93 ad 04 	sts	0x04AD, r24
    112c:	80 91 c3 03 	lds	r24, 0x03C3
    1130:	0e 94 15 06 	call	0xc2a	; 0xc2a <Motores>
    1134:	61 e0       	ldi	r22, 0x01	; 1
    1136:	81 e0       	ldi	r24, 0x01	; 1
    1138:	0e 94 e5 00 	call	0x1ca	; 0x1ca <lcd_gotoxy>
    113c:	ce e0       	ldi	r28, 0x0E	; 14
    113e:	d1 e0       	ldi	r29, 0x01	; 1
    1140:	df 93       	push	r29
    1142:	cf 93       	push	r28
    1144:	0e 94 ec 0b 	call	0x17d8	; 0x17d8 <printf>
    1148:	62 e0       	ldi	r22, 0x02	; 2
    114a:	81 e0       	ldi	r24, 0x01	; 1
    114c:	0e 94 e5 00 	call	0x1ca	; 0x1ca <lcd_gotoxy>
    1150:	88 ed       	ldi	r24, 0xD8	; 216
    1152:	91 e0       	ldi	r25, 0x01	; 1
    1154:	9f 93       	push	r25
    1156:	8f 93       	push	r24
    1158:	0e 94 ec 0b 	call	0x17d8	; 0x17d8 <printf>
    115c:	63 e0       	ldi	r22, 0x03	; 3
    115e:	81 e0       	ldi	r24, 0x01	; 1
    1160:	0e 94 e5 00 	call	0x1ca	; 0x1ca <lcd_gotoxy>
    1164:	df 93       	push	r29
    1166:	cf 93       	push	r28
    1168:	0e 94 ec 0b 	call	0x17d8	; 0x17d8 <printf>
    116c:	0f 90       	pop	r0
    116e:	0f 90       	pop	r0
    1170:	0f 90       	pop	r0
    1172:	0f 90       	pop	r0
    1174:	0f 90       	pop	r0
    1176:	0f 90       	pop	r0
    1178:	df 91       	pop	r29
    117a:	cf 91       	pop	r28
    117c:	08 95       	ret

0000117e <main>:
    117e:	0e 94 e1 06 	call	0xdc2	; 0xdc2 <Init>
    1182:	2f ef       	ldi	r18, 0xFF	; 255
    1184:	89 e6       	ldi	r24, 0x69	; 105
    1186:	98 e1       	ldi	r25, 0x18	; 24
    1188:	21 50       	subi	r18, 0x01	; 1
    118a:	80 40       	sbci	r24, 0x00	; 0
    118c:	90 40       	sbci	r25, 0x00	; 0
    118e:	e1 f7       	brne	.-8      	; 0x1188 <main+0xa>
    1190:	00 c0       	rjmp	.+0      	; 0x1192 <main+0x14>
    1192:	00 00       	nop
    1194:	0e 94 0b 01 	call	0x216	; 0x216 <init_usart>
    1198:	80 e0       	ldi	r24, 0x00	; 0
    119a:	91 e0       	ldi	r25, 0x01	; 1
    119c:	90 93 7b 05 	sts	0x057B, r25
    11a0:	80 93 7a 05 	sts	0x057A, r24
    11a4:	0e 94 c9 00 	call	0x192	; 0x192 <lcd_init>
    11a8:	87 e9       	ldi	r24, 0x97	; 151
    11aa:	80 93 ac 04 	sts	0x04AC, r24
    11ae:	89 e2       	ldi	r24, 0x29	; 41
    11b0:	80 93 c0 03 	sts	0x03C0, r24
    11b4:	10 92 ab 04 	sts	0x04AB, r1
    11b8:	10 92 a3 04 	sts	0x04A3, r1
    11bc:	81 e0       	ldi	r24, 0x01	; 1
    11be:	80 93 be 03 	sts	0x03BE, r24
    11c2:	10 92 ba 03 	sts	0x03BA, r1
    11c6:	10 92 a6 04 	sts	0x04A6, r1
    11ca:	10 92 bd 03 	sts	0x03BD, r1
    11ce:	10 92 c2 03 	sts	0x03C2, r1
    11d2:	10 92 98 04 	sts	0x0498, r1
    11d6:	0e 94 28 01 	call	0x250	; 0x250 <init_adc>
    11da:	84 e1       	ldi	r24, 0x14	; 20
    11dc:	90 e0       	ldi	r25, 0x00	; 0
    11de:	90 93 b7 03 	sts	0x03B7, r25
    11e2:	80 93 b6 03 	sts	0x03B6, r24
    11e6:	10 92 a8 04 	sts	0x04A8, r1
    11ea:	10 92 a7 04 	sts	0x04A7, r1
    11ee:	88 ee       	ldi	r24, 0xE8	; 232
    11f0:	93 e0       	ldi	r25, 0x03	; 3
    11f2:	90 93 9a 04 	sts	0x049A, r25
    11f6:	80 93 99 04 	sts	0x0499, r24
    11fa:	ce e0       	ldi	r28, 0x0E	; 14
    11fc:	d1 e0       	ldi	r29, 0x01	; 1
    11fe:	48 ee       	ldi	r20, 0xE8	; 232
    1200:	44 2e       	mov	r4, r20
    1202:	43 e0       	ldi	r20, 0x03	; 3
    1204:	54 2e       	mov	r5, r20
    1206:	08 ee       	ldi	r16, 0xE8	; 232
    1208:	13 e0       	ldi	r17, 0x03	; 3
    120a:	50 e9       	ldi	r21, 0x90	; 144
    120c:	e5 2e       	mov	r14, r21
    120e:	ff 24       	eor	r15, r15
    1210:	f3 94       	inc	r15
    1212:	64 e1       	ldi	r22, 0x14	; 20
    1214:	c6 2e       	mov	r12, r22
    1216:	d1 2c       	mov	r13, r1
    1218:	74 e6       	ldi	r23, 0x64	; 100
    121a:	67 2e       	mov	r6, r23
    121c:	71 2c       	mov	r7, r1
    121e:	e8 ee       	ldi	r30, 0xE8	; 232
    1220:	8e 2e       	mov	r8, r30
    1222:	e3 e0       	ldi	r30, 0x03	; 3
    1224:	9e 2e       	mov	r9, r30
    1226:	2a ef       	ldi	r18, 0xFA	; 250
    1228:	a2 2e       	mov	r10, r18
    122a:	bb 24       	eor	r11, r11
    122c:	b3 94       	inc	r11
    122e:	34 e0       	ldi	r19, 0x04	; 4
    1230:	33 2e       	mov	r3, r19
    1232:	80 91 c0 03 	lds	r24, 0x03C0
    1236:	89 32       	cpi	r24, 0x29	; 41
    1238:	09 f0       	breq	.+2      	; 0x123c <main+0xbe>
    123a:	78 c0       	rjmp	.+240    	; 0x132c <main+0x1ae>
    123c:	80 93 8b 04 	sts	0x048B, r24
    1240:	0e 94 88 02 	call	0x510	; 0x510 <Sensores>
    1244:	80 91 ac 04 	lds	r24, 0x04AC
    1248:	86 39       	cpi	r24, 0x96	; 150
    124a:	09 f0       	breq	.+2      	; 0x124e <main+0xd0>
    124c:	4d c0       	rjmp	.+154    	; 0x12e8 <main+0x16a>
    124e:	0e 94 2b 07 	call	0xe56	; 0xe56 <Calculo>
    1252:	80 91 a3 04 	lds	r24, 0x04A3
    1256:	81 11       	cpse	r24, r1
    1258:	07 c0       	rjmp	.+14     	; 0x1268 <main+0xea>
    125a:	0e 94 b1 02 	call	0x562	; 0x562 <Modo_Run>
    125e:	0e 94 eb 02 	call	0x5d6	; 0x5d6 <Conta_Volta>
    1262:	0e 94 bc 04 	call	0x978	; 0x978 <Send_To_Bluetooth>
    1266:	46 c0       	rjmp	.+140    	; 0x12f4 <main+0x176>
    1268:	80 91 24 02 	lds	r24, 0x0224
    126c:	90 91 25 02 	lds	r25, 0x0225
    1270:	89 2b       	or	r24, r25
    1272:	09 f0       	breq	.+2      	; 0x1276 <main+0xf8>
    1274:	3f c0       	rjmp	.+126    	; 0x12f4 <main+0x176>
    1276:	10 92 aa 04 	sts	0x04AA, r1
    127a:	80 91 aa 04 	lds	r24, 0x04AA
    127e:	81 11       	cpse	r24, r1
    1280:	02 c0       	rjmp	.+4      	; 0x1286 <main+0x108>
    1282:	0e 94 d3 07 	call	0xfa6	; 0xfa6 <Modo_Perdido>
    1286:	80 91 9f 04 	lds	r24, 0x049F
    128a:	90 91 a0 04 	lds	r25, 0x04A0
    128e:	89 2b       	or	r24, r25
    1290:	39 f4       	brne	.+14     	; 0x12a0 <main+0x122>
    1292:	85 b1       	in	r24, 0x05	; 5
    1294:	8b 25       	eor	r24, r11
    1296:	85 b9       	out	0x05, r24	; 5
    1298:	70 92 a0 04 	sts	0x04A0, r7
    129c:	60 92 9f 04 	sts	0x049F, r6
    12a0:	0e 94 88 02 	call	0x510	; 0x510 <Sensores>
    12a4:	80 91 93 04 	lds	r24, 0x0493
    12a8:	88 23       	and	r24, r24
    12aa:	81 f0       	breq	.+32     	; 0x12cc <main+0x14e>
    12ac:	80 91 94 04 	lds	r24, 0x0494
    12b0:	88 23       	and	r24, r24
    12b2:	61 f0       	breq	.+24     	; 0x12cc <main+0x14e>
    12b4:	80 91 95 04 	lds	r24, 0x0495
    12b8:	88 23       	and	r24, r24
    12ba:	41 f0       	breq	.+16     	; 0x12cc <main+0x14e>
    12bc:	80 91 96 04 	lds	r24, 0x0496
    12c0:	88 23       	and	r24, r24
    12c2:	21 f0       	breq	.+8      	; 0x12cc <main+0x14e>
    12c4:	80 91 97 04 	lds	r24, 0x0497
    12c8:	81 11       	cpse	r24, r1
    12ca:	d7 cf       	rjmp	.-82     	; 0x127a <main+0xfc>
    12cc:	10 92 a3 04 	sts	0x04A3, r1
    12d0:	0e 94 08 01 	call	0x210	; 0x210 <Reset_Lcd>
    12d4:	8b e7       	ldi	r24, 0x7B	; 123
    12d6:	0e 94 1a 01 	call	0x234	; 0x234 <Send_Data>
    12da:	8f e3       	ldi	r24, 0x3F	; 63
    12dc:	9f e1       	ldi	r25, 0x1F	; 31
    12de:	01 97       	sbiw	r24, 0x01	; 1
    12e0:	f1 f7       	brne	.-4      	; 0x12de <main+0x160>
    12e2:	00 c0       	rjmp	.+0      	; 0x12e4 <main+0x166>
    12e4:	00 00       	nop
    12e6:	06 c0       	rjmp	.+12     	; 0x12f4 <main+0x176>
    12e8:	80 91 ac 04 	lds	r24, 0x04AC
    12ec:	87 39       	cpi	r24, 0x97	; 151
    12ee:	11 f4       	brne	.+4      	; 0x12f4 <main+0x176>
    12f0:	0e 94 bb 07 	call	0xf76	; 0xf76 <Modo_Stop>
    12f4:	80 91 99 04 	lds	r24, 0x0499
    12f8:	90 91 9a 04 	lds	r25, 0x049A
    12fc:	89 2b       	or	r24, r25
    12fe:	41 f4       	brne	.+16     	; 0x1310 <main+0x192>
    1300:	0e 94 89 04 	call	0x912	; 0x912 <Read_Battery>
    1304:	10 93 9a 04 	sts	0x049A, r17
    1308:	00 93 99 04 	sts	0x0499, r16
    130c:	0e 94 91 05 	call	0xb22	; 0xb22 <Send_Battery_Bluetooth>
    1310:	80 91 b6 03 	lds	r24, 0x03B6
    1314:	90 91 b7 03 	lds	r25, 0x03B7
    1318:	89 2b       	or	r24, r25
    131a:	09 f0       	breq	.+2      	; 0x131e <main+0x1a0>
    131c:	cb c0       	rjmp	.+406    	; 0x14b4 <main+0x336>
    131e:	0e 94 22 03 	call	0x644	; 0x644 <lcd_print_lcd>
    1322:	d0 92 b7 03 	sts	0x03B7, r13
    1326:	c0 92 b6 03 	sts	0x03B6, r12
    132a:	c4 c0       	rjmp	.+392    	; 0x14b4 <main+0x336>
    132c:	80 91 c0 03 	lds	r24, 0x03C0
    1330:	88 32       	cpi	r24, 0x28	; 40
    1332:	09 f0       	breq	.+2      	; 0x1336 <main+0x1b8>
    1334:	7a c0       	rjmp	.+244    	; 0x142a <main+0x2ac>
    1336:	80 91 ab 04 	lds	r24, 0x04AB
    133a:	81 11       	cpse	r24, r1
    133c:	02 c0       	rjmp	.+4      	; 0x1342 <main+0x1c4>
    133e:	0e 94 b4 02 	call	0x568	; 0x568 <Incializa_Manual>
    1342:	80 91 8b 04 	lds	r24, 0x048B
    1346:	89 32       	cpi	r24, 0x29	; 41
    1348:	51 f0       	breq	.+20     	; 0x135e <main+0x1e0>
    134a:	80 91 8b 04 	lds	r24, 0x048B
    134e:	0e 94 15 06 	call	0xc2a	; 0xc2a <Motores>
    1352:	87 e5       	ldi	r24, 0x57	; 87
    1354:	92 e0       	ldi	r25, 0x02	; 2
    1356:	01 97       	sbiw	r24, 0x01	; 1
    1358:	f1 f7       	brne	.-4      	; 0x1356 <main+0x1d8>
    135a:	00 c0       	rjmp	.+0      	; 0x135c <main+0x1de>
    135c:	00 00       	nop
    135e:	80 91 99 04 	lds	r24, 0x0499
    1362:	90 91 9a 04 	lds	r25, 0x049A
    1366:	89 2b       	or	r24, r25
    1368:	41 f4       	brne	.+16     	; 0x137a <main+0x1fc>
    136a:	0e 94 89 04 	call	0x912	; 0x912 <Read_Battery>
    136e:	10 93 9a 04 	sts	0x049A, r17
    1372:	00 93 99 04 	sts	0x0499, r16
    1376:	0e 94 91 05 	call	0xb22	; 0xb22 <Send_Battery_Bluetooth>
    137a:	80 91 b6 03 	lds	r24, 0x03B6
    137e:	90 91 b7 03 	lds	r25, 0x03B7
    1382:	89 2b       	or	r24, r25
    1384:	31 f4       	brne	.+12     	; 0x1392 <main+0x214>
    1386:	0e 94 22 03 	call	0x644	; 0x644 <lcd_print_lcd>
    138a:	d0 92 b7 03 	sts	0x03B7, r13
    138e:	c0 92 b6 03 	sts	0x03B6, r12
    1392:	80 91 9b 04 	lds	r24, 0x049B
    1396:	90 91 9c 04 	lds	r25, 0x049C
    139a:	89 2b       	or	r24, r25
    139c:	09 f0       	breq	.+2      	; 0x13a0 <main+0x222>
    139e:	8a c0       	rjmp	.+276    	; 0x14b4 <main+0x336>
    13a0:	81 e0       	ldi	r24, 0x01	; 1
    13a2:	0e 94 b5 00 	call	0x16a	; 0x16a <lcdCommand>
    13a6:	61 e0       	ldi	r22, 0x01	; 1
    13a8:	81 e0       	ldi	r24, 0x01	; 1
    13aa:	0e 94 e5 00 	call	0x1ca	; 0x1ca <lcd_gotoxy>
    13ae:	df 93       	push	r29
    13b0:	cf 93       	push	r28
    13b2:	0e 94 ec 0b 	call	0x17d8	; 0x17d8 <printf>
    13b6:	62 e0       	ldi	r22, 0x02	; 2
    13b8:	85 e0       	ldi	r24, 0x05	; 5
    13ba:	0e 94 e5 00 	call	0x1ca	; 0x1ca <lcd_gotoxy>
    13be:	8d ee       	ldi	r24, 0xED	; 237
    13c0:	91 e0       	ldi	r25, 0x01	; 1
    13c2:	0e 94 8e 00 	call	0x11c	; 0x11c <lcd_print>
    13c6:	63 e0       	ldi	r22, 0x03	; 3
    13c8:	81 e0       	ldi	r24, 0x01	; 1
    13ca:	0e 94 e5 00 	call	0x1ca	; 0x1ca <lcd_gotoxy>
    13ce:	df 93       	push	r29
    13d0:	cf 93       	push	r28
    13d2:	0e 94 ec 0b 	call	0x17d8	; 0x17d8 <printf>
    13d6:	2f ef       	ldi	r18, 0xFF	; 255
    13d8:	86 e7       	ldi	r24, 0x76	; 118
    13da:	91 e0       	ldi	r25, 0x01	; 1
    13dc:	21 50       	subi	r18, 0x01	; 1
    13de:	80 40       	sbci	r24, 0x00	; 0
    13e0:	90 40       	sbci	r25, 0x00	; 0
    13e2:	e1 f7       	brne	.-8      	; 0x13dc <main+0x25e>
    13e4:	00 c0       	rjmp	.+0      	; 0x13e6 <main+0x268>
    13e6:	00 00       	nop
    13e8:	f0 92 a0 04 	sts	0x04A0, r15
    13ec:	e0 92 9f 04 	sts	0x049F, r14
    13f0:	0f 90       	pop	r0
    13f2:	0f 90       	pop	r0
    13f4:	0f 90       	pop	r0
    13f6:	0f 90       	pop	r0
    13f8:	80 91 9f 04 	lds	r24, 0x049F
    13fc:	90 91 a0 04 	lds	r25, 0x04A0
    1400:	89 2b       	or	r24, r25
    1402:	39 f4       	brne	.+14     	; 0x1412 <main+0x294>
    1404:	8b b1       	in	r24, 0x0b	; 11
    1406:	83 25       	eor	r24, r3
    1408:	8b b9       	out	0x0b, r24	; 11
    140a:	f0 92 a0 04 	sts	0x04A0, r15
    140e:	e0 92 9f 04 	sts	0x049F, r14
    1412:	8d e1       	ldi	r24, 0x1D	; 29
    1414:	0e 94 15 06 	call	0xc2a	; 0xc2a <Motores>
    1418:	80 91 9b 04 	lds	r24, 0x049B
    141c:	90 91 9c 04 	lds	r25, 0x049C
    1420:	89 2b       	or	r24, r25
    1422:	51 f3       	breq	.-44     	; 0x13f8 <main+0x27a>
    1424:	10 92 ab 04 	sts	0x04AB, r1
    1428:	45 c0       	rjmp	.+138    	; 0x14b4 <main+0x336>
    142a:	80 91 c0 03 	lds	r24, 0x03C0
    142e:	8a 32       	cpi	r24, 0x2A	; 42
    1430:	09 f0       	breq	.+2      	; 0x1434 <main+0x2b6>
    1432:	40 c0       	rjmp	.+128    	; 0x14b4 <main+0x336>
    1434:	a0 92 ad 04 	sts	0x04AD, r10
    1438:	8f e0       	ldi	r24, 0x0F	; 15
    143a:	80 93 bf 03 	sts	0x03BF, r24
    143e:	88 e2       	ldi	r24, 0x28	; 40
    1440:	80 93 ae 04 	sts	0x04AE, r24
    1444:	86 e4       	ldi	r24, 0x46	; 70
    1446:	80 93 bc 03 	sts	0x03BC, r24
    144a:	0e 94 08 01 	call	0x210	; 0x210 <Reset_Lcd>
    144e:	0e 94 c7 05 	call	0xb8e	; 0xb8e <Competicao>
    1452:	0e 94 88 02 	call	0x510	; 0x510 <Sensores>
    1456:	80 91 a3 04 	lds	r24, 0x04A3
    145a:	81 11       	cpse	r24, r1
    145c:	03 c0       	rjmp	.+6      	; 0x1464 <main+0x2e6>
    145e:	0e 94 2b 07 	call	0xe56	; 0xe56 <Calculo>
    1462:	23 c0       	rjmp	.+70     	; 0x14aa <main+0x32c>
    1464:	80 91 24 02 	lds	r24, 0x0224
    1468:	90 91 25 02 	lds	r25, 0x0225
    146c:	89 2b       	or	r24, r25
    146e:	e9 f4       	brne	.+58     	; 0x14aa <main+0x32c>
    1470:	8d e1       	ldi	r24, 0x1D	; 29
    1472:	0e 94 15 06 	call	0xc2a	; 0xc2a <Motores>
    1476:	85 b1       	in	r24, 0x05	; 5
    1478:	8b 25       	eor	r24, r11
    147a:	85 b9       	out	0x05, r24	; 5
    147c:	80 91 93 04 	lds	r24, 0x0493
    1480:	88 23       	and	r24, r24
    1482:	81 f0       	breq	.+32     	; 0x14a4 <main+0x326>
    1484:	80 91 94 04 	lds	r24, 0x0494
    1488:	88 23       	and	r24, r24
    148a:	61 f0       	breq	.+24     	; 0x14a4 <main+0x326>
    148c:	80 91 95 04 	lds	r24, 0x0495
    1490:	88 23       	and	r24, r24
    1492:	41 f0       	breq	.+16     	; 0x14a4 <main+0x326>
    1494:	80 91 96 04 	lds	r24, 0x0496
    1498:	88 23       	and	r24, r24
    149a:	21 f0       	breq	.+8      	; 0x14a4 <main+0x326>
    149c:	80 91 97 04 	lds	r24, 0x0497
    14a0:	81 11       	cpse	r24, r1
    14a2:	03 c0       	rjmp	.+6      	; 0x14aa <main+0x32c>
    14a4:	10 92 a3 04 	sts	0x04A3, r1
    14a8:	28 98       	cbi	0x05, 0	; 5
    14aa:	80 91 c0 03 	lds	r24, 0x03C0
    14ae:	8a 32       	cpi	r24, 0x2A	; 42
    14b0:	81 f2       	breq	.-96     	; 0x1452 <main+0x2d4>
    14b2:	1a c0       	rjmp	.+52     	; 0x14e8 <main+0x36a>
    14b4:	80 91 77 05 	lds	r24, 0x0577
    14b8:	83 30       	cpi	r24, 0x03	; 3
    14ba:	c8 f4       	brcc	.+50     	; 0x14ee <main+0x370>
    14bc:	0e 94 05 08 	call	0x100a	; 0x100a <Bateria_Fraca>
    14c0:	80 91 99 04 	lds	r24, 0x0499
    14c4:	90 91 9a 04 	lds	r25, 0x049A
    14c8:	89 2b       	or	r24, r25
    14ca:	41 f4       	brne	.+16     	; 0x14dc <main+0x35e>
    14cc:	0e 94 89 04 	call	0x912	; 0x912 <Read_Battery>
    14d0:	90 92 9a 04 	sts	0x049A, r9
    14d4:	80 92 99 04 	sts	0x0499, r8
    14d8:	0e 94 91 05 	call	0xb22	; 0xb22 <Send_Battery_Bluetooth>
    14dc:	80 91 77 05 	lds	r24, 0x0577
    14e0:	83 30       	cpi	r24, 0x03	; 3
    14e2:	40 f3       	brcs	.-48     	; 0x14b4 <main+0x336>
    14e4:	10 92 ba 03 	sts	0x03BA, r1
    14e8:	0e 94 08 01 	call	0x210	; 0x210 <Reset_Lcd>
    14ec:	e3 cf       	rjmp	.-58     	; 0x14b4 <main+0x336>
    14ee:	80 91 c2 03 	lds	r24, 0x03C2
    14f2:	88 23       	and	r24, r24
    14f4:	09 f4       	brne	.+2      	; 0x14f8 <main+0x37a>
    14f6:	9d ce       	rjmp	.-710    	; 0x1232 <main+0xb4>
    14f8:	0e 94 86 08 	call	0x110c	; 0x110c <Init_Reproducao>
    14fc:	8a ef       	ldi	r24, 0xFA	; 250
    14fe:	a8 2e       	mov	r10, r24
    1500:	81 e0       	ldi	r24, 0x01	; 1
    1502:	b8 2e       	mov	r11, r24
    1504:	94 e0       	ldi	r25, 0x04	; 4
    1506:	39 2e       	mov	r3, r25
    1508:	20 91 a4 04 	lds	r18, 0x04A4
    150c:	30 91 a5 04 	lds	r19, 0x04A5
    1510:	80 91 98 04 	lds	r24, 0x0498
    1514:	23 2b       	or	r18, r19
    1516:	29 f4       	brne	.+10     	; 0x1522 <main+0x3a4>
    1518:	81 11       	cpse	r24, r1
    151a:	03 c0       	rjmp	.+6      	; 0x1522 <main+0x3a4>
    151c:	0e 94 5d 08 	call	0x10ba	; 0x10ba <Reproduzir>
    1520:	1c c0       	rjmp	.+56     	; 0x155a <main+0x3dc>
    1522:	88 23       	and	r24, r24
    1524:	d1 f0       	breq	.+52     	; 0x155a <main+0x3dc>
    1526:	8d e1       	ldi	r24, 0x1D	; 29
    1528:	0e 94 15 06 	call	0xc2a	; 0xc2a <Motores>
    152c:	62 e0       	ldi	r22, 0x02	; 2
    152e:	81 e0       	ldi	r24, 0x01	; 1
    1530:	0e 94 e5 00 	call	0x1ca	; 0x1ca <lcd_gotoxy>
    1534:	bf 92       	push	r11
    1536:	af 92       	push	r10
    1538:	0e 94 ec 0b 	call	0x17d8	; 0x17d8 <printf>
    153c:	80 91 a4 04 	lds	r24, 0x04A4
    1540:	90 91 a5 04 	lds	r25, 0x04A5
    1544:	0f 90       	pop	r0
    1546:	0f 90       	pop	r0
    1548:	89 2b       	or	r24, r25
    154a:	39 f4       	brne	.+14     	; 0x155a <main+0x3dc>
    154c:	8b b1       	in	r24, 0x0b	; 11
    154e:	83 25       	eor	r24, r3
    1550:	8b b9       	out	0x0b, r24	; 11
    1552:	50 92 a5 04 	sts	0x04A5, r5
    1556:	40 92 a4 04 	sts	0x04A4, r4
    155a:	80 91 c2 03 	lds	r24, 0x03C2
    155e:	81 11       	cpse	r24, r1
    1560:	d3 cf       	rjmp	.-90     	; 0x1508 <main+0x38a>
    1562:	10 92 91 04 	sts	0x0491, r1
    1566:	10 92 a9 04 	sts	0x04A9, r1
    156a:	0e 94 08 01 	call	0x210	; 0x210 <Reset_Lcd>
    156e:	10 92 ab 04 	sts	0x04AB, r1
    1572:	10 92 98 04 	sts	0x0498, r1
    1576:	57 ce       	rjmp	.-850    	; 0x1226 <main+0xa8>

00001578 <__tablejump2__>:
    1578:	ee 0f       	add	r30, r30
    157a:	ff 1f       	adc	r31, r31
    157c:	05 90       	lpm	r0, Z+
    157e:	f4 91       	lpm	r31, Z
    1580:	e0 2d       	mov	r30, r0
    1582:	09 94       	ijmp

00001584 <__fixunssfsi>:
    1584:	0e 94 36 0b 	call	0x166c	; 0x166c <__fp_splitA>
    1588:	88 f0       	brcs	.+34     	; 0x15ac <__fixunssfsi+0x28>
    158a:	9f 57       	subi	r25, 0x7F	; 127
    158c:	98 f0       	brcs	.+38     	; 0x15b4 <__fixunssfsi+0x30>
    158e:	b9 2f       	mov	r27, r25
    1590:	99 27       	eor	r25, r25
    1592:	b7 51       	subi	r27, 0x17	; 23
    1594:	b0 f0       	brcs	.+44     	; 0x15c2 <__fixunssfsi+0x3e>
    1596:	e1 f0       	breq	.+56     	; 0x15d0 <__fixunssfsi+0x4c>
    1598:	66 0f       	add	r22, r22
    159a:	77 1f       	adc	r23, r23
    159c:	88 1f       	adc	r24, r24
    159e:	99 1f       	adc	r25, r25
    15a0:	1a f0       	brmi	.+6      	; 0x15a8 <__fixunssfsi+0x24>
    15a2:	ba 95       	dec	r27
    15a4:	c9 f7       	brne	.-14     	; 0x1598 <__fixunssfsi+0x14>
    15a6:	14 c0       	rjmp	.+40     	; 0x15d0 <__fixunssfsi+0x4c>
    15a8:	b1 30       	cpi	r27, 0x01	; 1
    15aa:	91 f0       	breq	.+36     	; 0x15d0 <__fixunssfsi+0x4c>
    15ac:	0e 94 50 0b 	call	0x16a0	; 0x16a0 <__fp_zero>
    15b0:	b1 e0       	ldi	r27, 0x01	; 1
    15b2:	08 95       	ret
    15b4:	0c 94 50 0b 	jmp	0x16a0	; 0x16a0 <__fp_zero>
    15b8:	67 2f       	mov	r22, r23
    15ba:	78 2f       	mov	r23, r24
    15bc:	88 27       	eor	r24, r24
    15be:	b8 5f       	subi	r27, 0xF8	; 248
    15c0:	39 f0       	breq	.+14     	; 0x15d0 <__fixunssfsi+0x4c>
    15c2:	b9 3f       	cpi	r27, 0xF9	; 249
    15c4:	cc f3       	brlt	.-14     	; 0x15b8 <__fixunssfsi+0x34>
    15c6:	86 95       	lsr	r24
    15c8:	77 95       	ror	r23
    15ca:	67 95       	ror	r22
    15cc:	b3 95       	inc	r27
    15ce:	d9 f7       	brne	.-10     	; 0x15c6 <__fixunssfsi+0x42>
    15d0:	3e f4       	brtc	.+14     	; 0x15e0 <__fixunssfsi+0x5c>
    15d2:	90 95       	com	r25
    15d4:	80 95       	com	r24
    15d6:	70 95       	com	r23
    15d8:	61 95       	neg	r22
    15da:	7f 4f       	sbci	r23, 0xFF	; 255
    15dc:	8f 4f       	sbci	r24, 0xFF	; 255
    15de:	9f 4f       	sbci	r25, 0xFF	; 255
    15e0:	08 95       	ret

000015e2 <__floatunsisf>:
    15e2:	e8 94       	clt
    15e4:	09 c0       	rjmp	.+18     	; 0x15f8 <__floatsisf+0x12>

000015e6 <__floatsisf>:
    15e6:	97 fb       	bst	r25, 7
    15e8:	3e f4       	brtc	.+14     	; 0x15f8 <__floatsisf+0x12>
    15ea:	90 95       	com	r25
    15ec:	80 95       	com	r24
    15ee:	70 95       	com	r23
    15f0:	61 95       	neg	r22
    15f2:	7f 4f       	sbci	r23, 0xFF	; 255
    15f4:	8f 4f       	sbci	r24, 0xFF	; 255
    15f6:	9f 4f       	sbci	r25, 0xFF	; 255
    15f8:	99 23       	and	r25, r25
    15fa:	a9 f0       	breq	.+42     	; 0x1626 <__floatsisf+0x40>
    15fc:	f9 2f       	mov	r31, r25
    15fe:	96 e9       	ldi	r25, 0x96	; 150
    1600:	bb 27       	eor	r27, r27
    1602:	93 95       	inc	r25
    1604:	f6 95       	lsr	r31
    1606:	87 95       	ror	r24
    1608:	77 95       	ror	r23
    160a:	67 95       	ror	r22
    160c:	b7 95       	ror	r27
    160e:	f1 11       	cpse	r31, r1
    1610:	f8 cf       	rjmp	.-16     	; 0x1602 <__floatsisf+0x1c>
    1612:	fa f4       	brpl	.+62     	; 0x1652 <__floatsisf+0x6c>
    1614:	bb 0f       	add	r27, r27
    1616:	11 f4       	brne	.+4      	; 0x161c <__floatsisf+0x36>
    1618:	60 ff       	sbrs	r22, 0
    161a:	1b c0       	rjmp	.+54     	; 0x1652 <__floatsisf+0x6c>
    161c:	6f 5f       	subi	r22, 0xFF	; 255
    161e:	7f 4f       	sbci	r23, 0xFF	; 255
    1620:	8f 4f       	sbci	r24, 0xFF	; 255
    1622:	9f 4f       	sbci	r25, 0xFF	; 255
    1624:	16 c0       	rjmp	.+44     	; 0x1652 <__floatsisf+0x6c>
    1626:	88 23       	and	r24, r24
    1628:	11 f0       	breq	.+4      	; 0x162e <__floatsisf+0x48>
    162a:	96 e9       	ldi	r25, 0x96	; 150
    162c:	11 c0       	rjmp	.+34     	; 0x1650 <__floatsisf+0x6a>
    162e:	77 23       	and	r23, r23
    1630:	21 f0       	breq	.+8      	; 0x163a <__floatsisf+0x54>
    1632:	9e e8       	ldi	r25, 0x8E	; 142
    1634:	87 2f       	mov	r24, r23
    1636:	76 2f       	mov	r23, r22
    1638:	05 c0       	rjmp	.+10     	; 0x1644 <__floatsisf+0x5e>
    163a:	66 23       	and	r22, r22
    163c:	71 f0       	breq	.+28     	; 0x165a <__floatsisf+0x74>
    163e:	96 e8       	ldi	r25, 0x86	; 134
    1640:	86 2f       	mov	r24, r22
    1642:	70 e0       	ldi	r23, 0x00	; 0
    1644:	60 e0       	ldi	r22, 0x00	; 0
    1646:	2a f0       	brmi	.+10     	; 0x1652 <__floatsisf+0x6c>
    1648:	9a 95       	dec	r25
    164a:	66 0f       	add	r22, r22
    164c:	77 1f       	adc	r23, r23
    164e:	88 1f       	adc	r24, r24
    1650:	da f7       	brpl	.-10     	; 0x1648 <__floatsisf+0x62>
    1652:	88 0f       	add	r24, r24
    1654:	96 95       	lsr	r25
    1656:	87 95       	ror	r24
    1658:	97 f9       	bld	r25, 7
    165a:	08 95       	ret

0000165c <__fp_split3>:
    165c:	57 fd       	sbrc	r21, 7
    165e:	90 58       	subi	r25, 0x80	; 128
    1660:	44 0f       	add	r20, r20
    1662:	55 1f       	adc	r21, r21
    1664:	59 f0       	breq	.+22     	; 0x167c <__fp_splitA+0x10>
    1666:	5f 3f       	cpi	r21, 0xFF	; 255
    1668:	71 f0       	breq	.+28     	; 0x1686 <__fp_splitA+0x1a>
    166a:	47 95       	ror	r20

0000166c <__fp_splitA>:
    166c:	88 0f       	add	r24, r24
    166e:	97 fb       	bst	r25, 7
    1670:	99 1f       	adc	r25, r25
    1672:	61 f0       	breq	.+24     	; 0x168c <__fp_splitA+0x20>
    1674:	9f 3f       	cpi	r25, 0xFF	; 255
    1676:	79 f0       	breq	.+30     	; 0x1696 <__fp_splitA+0x2a>
    1678:	87 95       	ror	r24
    167a:	08 95       	ret
    167c:	12 16       	cp	r1, r18
    167e:	13 06       	cpc	r1, r19
    1680:	14 06       	cpc	r1, r20
    1682:	55 1f       	adc	r21, r21
    1684:	f2 cf       	rjmp	.-28     	; 0x166a <__fp_split3+0xe>
    1686:	46 95       	lsr	r20
    1688:	f1 df       	rcall	.-30     	; 0x166c <__fp_splitA>
    168a:	08 c0       	rjmp	.+16     	; 0x169c <__fp_splitA+0x30>
    168c:	16 16       	cp	r1, r22
    168e:	17 06       	cpc	r1, r23
    1690:	18 06       	cpc	r1, r24
    1692:	99 1f       	adc	r25, r25
    1694:	f1 cf       	rjmp	.-30     	; 0x1678 <__fp_splitA+0xc>
    1696:	86 95       	lsr	r24
    1698:	71 05       	cpc	r23, r1
    169a:	61 05       	cpc	r22, r1
    169c:	08 94       	sec
    169e:	08 95       	ret

000016a0 <__fp_zero>:
    16a0:	e8 94       	clt

000016a2 <__fp_szero>:
    16a2:	bb 27       	eor	r27, r27
    16a4:	66 27       	eor	r22, r22
    16a6:	77 27       	eor	r23, r23
    16a8:	cb 01       	movw	r24, r22
    16aa:	97 f9       	bld	r25, 7
    16ac:	08 95       	ret

000016ae <__mulsf3>:
    16ae:	0e 94 6a 0b 	call	0x16d4	; 0x16d4 <__mulsf3x>
    16b2:	0c 94 db 0b 	jmp	0x17b6	; 0x17b6 <__fp_round>
    16b6:	0e 94 cd 0b 	call	0x179a	; 0x179a <__fp_pscA>
    16ba:	38 f0       	brcs	.+14     	; 0x16ca <__mulsf3+0x1c>
    16bc:	0e 94 d4 0b 	call	0x17a8	; 0x17a8 <__fp_pscB>
    16c0:	20 f0       	brcs	.+8      	; 0x16ca <__mulsf3+0x1c>
    16c2:	95 23       	and	r25, r21
    16c4:	11 f0       	breq	.+4      	; 0x16ca <__mulsf3+0x1c>
    16c6:	0c 94 c4 0b 	jmp	0x1788	; 0x1788 <__fp_inf>
    16ca:	0c 94 ca 0b 	jmp	0x1794	; 0x1794 <__fp_nan>
    16ce:	11 24       	eor	r1, r1
    16d0:	0c 94 51 0b 	jmp	0x16a2	; 0x16a2 <__fp_szero>

000016d4 <__mulsf3x>:
    16d4:	0e 94 2e 0b 	call	0x165c	; 0x165c <__fp_split3>
    16d8:	70 f3       	brcs	.-36     	; 0x16b6 <__mulsf3+0x8>

000016da <__mulsf3_pse>:
    16da:	95 9f       	mul	r25, r21
    16dc:	c1 f3       	breq	.-16     	; 0x16ce <__mulsf3+0x20>
    16de:	95 0f       	add	r25, r21
    16e0:	50 e0       	ldi	r21, 0x00	; 0
    16e2:	55 1f       	adc	r21, r21
    16e4:	62 9f       	mul	r22, r18
    16e6:	f0 01       	movw	r30, r0
    16e8:	72 9f       	mul	r23, r18
    16ea:	bb 27       	eor	r27, r27
    16ec:	f0 0d       	add	r31, r0
    16ee:	b1 1d       	adc	r27, r1
    16f0:	63 9f       	mul	r22, r19
    16f2:	aa 27       	eor	r26, r26
    16f4:	f0 0d       	add	r31, r0
    16f6:	b1 1d       	adc	r27, r1
    16f8:	aa 1f       	adc	r26, r26
    16fa:	64 9f       	mul	r22, r20
    16fc:	66 27       	eor	r22, r22
    16fe:	b0 0d       	add	r27, r0
    1700:	a1 1d       	adc	r26, r1
    1702:	66 1f       	adc	r22, r22
    1704:	82 9f       	mul	r24, r18
    1706:	22 27       	eor	r18, r18
    1708:	b0 0d       	add	r27, r0
    170a:	a1 1d       	adc	r26, r1
    170c:	62 1f       	adc	r22, r18
    170e:	73 9f       	mul	r23, r19
    1710:	b0 0d       	add	r27, r0
    1712:	a1 1d       	adc	r26, r1
    1714:	62 1f       	adc	r22, r18
    1716:	83 9f       	mul	r24, r19
    1718:	a0 0d       	add	r26, r0
    171a:	61 1d       	adc	r22, r1
    171c:	22 1f       	adc	r18, r18
    171e:	74 9f       	mul	r23, r20
    1720:	33 27       	eor	r19, r19
    1722:	a0 0d       	add	r26, r0
    1724:	61 1d       	adc	r22, r1
    1726:	23 1f       	adc	r18, r19
    1728:	84 9f       	mul	r24, r20
    172a:	60 0d       	add	r22, r0
    172c:	21 1d       	adc	r18, r1
    172e:	82 2f       	mov	r24, r18
    1730:	76 2f       	mov	r23, r22
    1732:	6a 2f       	mov	r22, r26
    1734:	11 24       	eor	r1, r1
    1736:	9f 57       	subi	r25, 0x7F	; 127
    1738:	50 40       	sbci	r21, 0x00	; 0
    173a:	9a f0       	brmi	.+38     	; 0x1762 <__mulsf3_pse+0x88>
    173c:	f1 f0       	breq	.+60     	; 0x177a <__mulsf3_pse+0xa0>
    173e:	88 23       	and	r24, r24
    1740:	4a f0       	brmi	.+18     	; 0x1754 <__mulsf3_pse+0x7a>
    1742:	ee 0f       	add	r30, r30
    1744:	ff 1f       	adc	r31, r31
    1746:	bb 1f       	adc	r27, r27
    1748:	66 1f       	adc	r22, r22
    174a:	77 1f       	adc	r23, r23
    174c:	88 1f       	adc	r24, r24
    174e:	91 50       	subi	r25, 0x01	; 1
    1750:	50 40       	sbci	r21, 0x00	; 0
    1752:	a9 f7       	brne	.-22     	; 0x173e <__mulsf3_pse+0x64>
    1754:	9e 3f       	cpi	r25, 0xFE	; 254
    1756:	51 05       	cpc	r21, r1
    1758:	80 f0       	brcs	.+32     	; 0x177a <__mulsf3_pse+0xa0>
    175a:	0c 94 c4 0b 	jmp	0x1788	; 0x1788 <__fp_inf>
    175e:	0c 94 51 0b 	jmp	0x16a2	; 0x16a2 <__fp_szero>
    1762:	5f 3f       	cpi	r21, 0xFF	; 255
    1764:	e4 f3       	brlt	.-8      	; 0x175e <__mulsf3_pse+0x84>
    1766:	98 3e       	cpi	r25, 0xE8	; 232
    1768:	d4 f3       	brlt	.-12     	; 0x175e <__mulsf3_pse+0x84>
    176a:	86 95       	lsr	r24
    176c:	77 95       	ror	r23
    176e:	67 95       	ror	r22
    1770:	b7 95       	ror	r27
    1772:	f7 95       	ror	r31
    1774:	e7 95       	ror	r30
    1776:	9f 5f       	subi	r25, 0xFF	; 255
    1778:	c1 f7       	brne	.-16     	; 0x176a <__mulsf3_pse+0x90>
    177a:	fe 2b       	or	r31, r30
    177c:	88 0f       	add	r24, r24
    177e:	91 1d       	adc	r25, r1
    1780:	96 95       	lsr	r25
    1782:	87 95       	ror	r24
    1784:	97 f9       	bld	r25, 7
    1786:	08 95       	ret

00001788 <__fp_inf>:
    1788:	97 f9       	bld	r25, 7
    178a:	9f 67       	ori	r25, 0x7F	; 127
    178c:	80 e8       	ldi	r24, 0x80	; 128
    178e:	70 e0       	ldi	r23, 0x00	; 0
    1790:	60 e0       	ldi	r22, 0x00	; 0
    1792:	08 95       	ret

00001794 <__fp_nan>:
    1794:	9f ef       	ldi	r25, 0xFF	; 255
    1796:	80 ec       	ldi	r24, 0xC0	; 192
    1798:	08 95       	ret

0000179a <__fp_pscA>:
    179a:	00 24       	eor	r0, r0
    179c:	0a 94       	dec	r0
    179e:	16 16       	cp	r1, r22
    17a0:	17 06       	cpc	r1, r23
    17a2:	18 06       	cpc	r1, r24
    17a4:	09 06       	cpc	r0, r25
    17a6:	08 95       	ret

000017a8 <__fp_pscB>:
    17a8:	00 24       	eor	r0, r0
    17aa:	0a 94       	dec	r0
    17ac:	12 16       	cp	r1, r18
    17ae:	13 06       	cpc	r1, r19
    17b0:	14 06       	cpc	r1, r20
    17b2:	05 06       	cpc	r0, r21
    17b4:	08 95       	ret

000017b6 <__fp_round>:
    17b6:	09 2e       	mov	r0, r25
    17b8:	03 94       	inc	r0
    17ba:	00 0c       	add	r0, r0
    17bc:	11 f4       	brne	.+4      	; 0x17c2 <__fp_round+0xc>
    17be:	88 23       	and	r24, r24
    17c0:	52 f0       	brmi	.+20     	; 0x17d6 <__fp_round+0x20>
    17c2:	bb 0f       	add	r27, r27
    17c4:	40 f4       	brcc	.+16     	; 0x17d6 <__fp_round+0x20>
    17c6:	bf 2b       	or	r27, r31
    17c8:	11 f4       	brne	.+4      	; 0x17ce <__fp_round+0x18>
    17ca:	60 ff       	sbrs	r22, 0
    17cc:	04 c0       	rjmp	.+8      	; 0x17d6 <__fp_round+0x20>
    17ce:	6f 5f       	subi	r22, 0xFF	; 255
    17d0:	7f 4f       	sbci	r23, 0xFF	; 255
    17d2:	8f 4f       	sbci	r24, 0xFF	; 255
    17d4:	9f 4f       	sbci	r25, 0xFF	; 255
    17d6:	08 95       	ret

000017d8 <printf>:
    17d8:	a0 e0       	ldi	r26, 0x00	; 0
    17da:	b0 e0       	ldi	r27, 0x00	; 0
    17dc:	e2 ef       	ldi	r30, 0xF2	; 242
    17de:	fb e0       	ldi	r31, 0x0B	; 11
    17e0:	0c 94 b3 0e 	jmp	0x1d66	; 0x1d66 <__prologue_saves__+0x20>
    17e4:	ae 01       	movw	r20, r28
    17e6:	4b 5f       	subi	r20, 0xFB	; 251
    17e8:	5f 4f       	sbci	r21, 0xFF	; 255
    17ea:	fa 01       	movw	r30, r20
    17ec:	61 91       	ld	r22, Z+
    17ee:	71 91       	ld	r23, Z+
    17f0:	af 01       	movw	r20, r30
    17f2:	80 91 7a 05 	lds	r24, 0x057A
    17f6:	90 91 7b 05 	lds	r25, 0x057B
    17fa:	0e 94 25 0c 	call	0x184a	; 0x184a <vfprintf>
    17fe:	e2 e0       	ldi	r30, 0x02	; 2
    1800:	0c 94 cf 0e 	jmp	0x1d9e	; 0x1d9e <__epilogue_restores__+0x20>

00001804 <sprintf>:
    1804:	ae e0       	ldi	r26, 0x0E	; 14
    1806:	b0 e0       	ldi	r27, 0x00	; 0
    1808:	e8 e0       	ldi	r30, 0x08	; 8
    180a:	fc e0       	ldi	r31, 0x0C	; 12
    180c:	0c 94 b1 0e 	jmp	0x1d62	; 0x1d62 <__prologue_saves__+0x1c>
    1810:	0d 89       	ldd	r16, Y+21	; 0x15
    1812:	1e 89       	ldd	r17, Y+22	; 0x16
    1814:	86 e0       	ldi	r24, 0x06	; 6
    1816:	8c 83       	std	Y+4, r24	; 0x04
    1818:	1a 83       	std	Y+2, r17	; 0x02
    181a:	09 83       	std	Y+1, r16	; 0x01
    181c:	8f ef       	ldi	r24, 0xFF	; 255
    181e:	9f e7       	ldi	r25, 0x7F	; 127
    1820:	9e 83       	std	Y+6, r25	; 0x06
    1822:	8d 83       	std	Y+5, r24	; 0x05
    1824:	ae 01       	movw	r20, r28
    1826:	47 5e       	subi	r20, 0xE7	; 231
    1828:	5f 4f       	sbci	r21, 0xFF	; 255
    182a:	6f 89       	ldd	r22, Y+23	; 0x17
    182c:	78 8d       	ldd	r23, Y+24	; 0x18
    182e:	ce 01       	movw	r24, r28
    1830:	01 96       	adiw	r24, 0x01	; 1
    1832:	0e 94 25 0c 	call	0x184a	; 0x184a <vfprintf>
    1836:	2f 81       	ldd	r18, Y+7	; 0x07
    1838:	38 85       	ldd	r19, Y+8	; 0x08
    183a:	f8 01       	movw	r30, r16
    183c:	e2 0f       	add	r30, r18
    183e:	f3 1f       	adc	r31, r19
    1840:	10 82       	st	Z, r1
    1842:	2e 96       	adiw	r28, 0x0e	; 14
    1844:	e4 e0       	ldi	r30, 0x04	; 4
    1846:	0c 94 cd 0e 	jmp	0x1d9a	; 0x1d9a <__epilogue_restores__+0x1c>

0000184a <vfprintf>:
    184a:	ac e0       	ldi	r26, 0x0C	; 12
    184c:	b0 e0       	ldi	r27, 0x00	; 0
    184e:	eb e2       	ldi	r30, 0x2B	; 43
    1850:	fc e0       	ldi	r31, 0x0C	; 12
    1852:	0c 94 a3 0e 	jmp	0x1d46	; 0x1d46 <__prologue_saves__>
    1856:	7c 01       	movw	r14, r24
    1858:	6b 01       	movw	r12, r22
    185a:	8a 01       	movw	r16, r20
    185c:	fc 01       	movw	r30, r24
    185e:	17 82       	std	Z+7, r1	; 0x07
    1860:	16 82       	std	Z+6, r1	; 0x06
    1862:	83 81       	ldd	r24, Z+3	; 0x03
    1864:	81 ff       	sbrs	r24, 1
    1866:	bd c1       	rjmp	.+890    	; 0x1be2 <vfprintf+0x398>
    1868:	ce 01       	movw	r24, r28
    186a:	01 96       	adiw	r24, 0x01	; 1
    186c:	4c 01       	movw	r8, r24
    186e:	f7 01       	movw	r30, r14
    1870:	93 81       	ldd	r25, Z+3	; 0x03
    1872:	f6 01       	movw	r30, r12
    1874:	93 fd       	sbrc	r25, 3
    1876:	85 91       	lpm	r24, Z+
    1878:	93 ff       	sbrs	r25, 3
    187a:	81 91       	ld	r24, Z+
    187c:	6f 01       	movw	r12, r30
    187e:	88 23       	and	r24, r24
    1880:	09 f4       	brne	.+2      	; 0x1884 <vfprintf+0x3a>
    1882:	ab c1       	rjmp	.+854    	; 0x1bda <vfprintf+0x390>
    1884:	85 32       	cpi	r24, 0x25	; 37
    1886:	39 f4       	brne	.+14     	; 0x1896 <vfprintf+0x4c>
    1888:	93 fd       	sbrc	r25, 3
    188a:	85 91       	lpm	r24, Z+
    188c:	93 ff       	sbrs	r25, 3
    188e:	81 91       	ld	r24, Z+
    1890:	6f 01       	movw	r12, r30
    1892:	85 32       	cpi	r24, 0x25	; 37
    1894:	29 f4       	brne	.+10     	; 0x18a0 <vfprintf+0x56>
    1896:	b7 01       	movw	r22, r14
    1898:	90 e0       	ldi	r25, 0x00	; 0
    189a:	0e 94 0d 0e 	call	0x1c1a	; 0x1c1a <fputc>
    189e:	e7 cf       	rjmp	.-50     	; 0x186e <vfprintf+0x24>
    18a0:	51 2c       	mov	r5, r1
    18a2:	31 2c       	mov	r3, r1
    18a4:	20 e0       	ldi	r18, 0x00	; 0
    18a6:	20 32       	cpi	r18, 0x20	; 32
    18a8:	a0 f4       	brcc	.+40     	; 0x18d2 <vfprintf+0x88>
    18aa:	8b 32       	cpi	r24, 0x2B	; 43
    18ac:	69 f0       	breq	.+26     	; 0x18c8 <vfprintf+0x7e>
    18ae:	30 f4       	brcc	.+12     	; 0x18bc <vfprintf+0x72>
    18b0:	80 32       	cpi	r24, 0x20	; 32
    18b2:	59 f0       	breq	.+22     	; 0x18ca <vfprintf+0x80>
    18b4:	83 32       	cpi	r24, 0x23	; 35
    18b6:	69 f4       	brne	.+26     	; 0x18d2 <vfprintf+0x88>
    18b8:	20 61       	ori	r18, 0x10	; 16
    18ba:	2c c0       	rjmp	.+88     	; 0x1914 <vfprintf+0xca>
    18bc:	8d 32       	cpi	r24, 0x2D	; 45
    18be:	39 f0       	breq	.+14     	; 0x18ce <vfprintf+0x84>
    18c0:	80 33       	cpi	r24, 0x30	; 48
    18c2:	39 f4       	brne	.+14     	; 0x18d2 <vfprintf+0x88>
    18c4:	21 60       	ori	r18, 0x01	; 1
    18c6:	26 c0       	rjmp	.+76     	; 0x1914 <vfprintf+0xca>
    18c8:	22 60       	ori	r18, 0x02	; 2
    18ca:	24 60       	ori	r18, 0x04	; 4
    18cc:	23 c0       	rjmp	.+70     	; 0x1914 <vfprintf+0xca>
    18ce:	28 60       	ori	r18, 0x08	; 8
    18d0:	21 c0       	rjmp	.+66     	; 0x1914 <vfprintf+0xca>
    18d2:	27 fd       	sbrc	r18, 7
    18d4:	27 c0       	rjmp	.+78     	; 0x1924 <vfprintf+0xda>
    18d6:	30 ed       	ldi	r19, 0xD0	; 208
    18d8:	38 0f       	add	r19, r24
    18da:	3a 30       	cpi	r19, 0x0A	; 10
    18dc:	78 f4       	brcc	.+30     	; 0x18fc <vfprintf+0xb2>
    18de:	26 ff       	sbrs	r18, 6
    18e0:	06 c0       	rjmp	.+12     	; 0x18ee <vfprintf+0xa4>
    18e2:	fa e0       	ldi	r31, 0x0A	; 10
    18e4:	5f 9e       	mul	r5, r31
    18e6:	30 0d       	add	r19, r0
    18e8:	11 24       	eor	r1, r1
    18ea:	53 2e       	mov	r5, r19
    18ec:	13 c0       	rjmp	.+38     	; 0x1914 <vfprintf+0xca>
    18ee:	8a e0       	ldi	r24, 0x0A	; 10
    18f0:	38 9e       	mul	r3, r24
    18f2:	30 0d       	add	r19, r0
    18f4:	11 24       	eor	r1, r1
    18f6:	33 2e       	mov	r3, r19
    18f8:	20 62       	ori	r18, 0x20	; 32
    18fa:	0c c0       	rjmp	.+24     	; 0x1914 <vfprintf+0xca>
    18fc:	8e 32       	cpi	r24, 0x2E	; 46
    18fe:	21 f4       	brne	.+8      	; 0x1908 <vfprintf+0xbe>
    1900:	26 fd       	sbrc	r18, 6
    1902:	6b c1       	rjmp	.+726    	; 0x1bda <vfprintf+0x390>
    1904:	20 64       	ori	r18, 0x40	; 64
    1906:	06 c0       	rjmp	.+12     	; 0x1914 <vfprintf+0xca>
    1908:	8c 36       	cpi	r24, 0x6C	; 108
    190a:	11 f4       	brne	.+4      	; 0x1910 <vfprintf+0xc6>
    190c:	20 68       	ori	r18, 0x80	; 128
    190e:	02 c0       	rjmp	.+4      	; 0x1914 <vfprintf+0xca>
    1910:	88 36       	cpi	r24, 0x68	; 104
    1912:	41 f4       	brne	.+16     	; 0x1924 <vfprintf+0xda>
    1914:	f6 01       	movw	r30, r12
    1916:	93 fd       	sbrc	r25, 3
    1918:	85 91       	lpm	r24, Z+
    191a:	93 ff       	sbrs	r25, 3
    191c:	81 91       	ld	r24, Z+
    191e:	6f 01       	movw	r12, r30
    1920:	81 11       	cpse	r24, r1
    1922:	c1 cf       	rjmp	.-126    	; 0x18a6 <vfprintf+0x5c>
    1924:	98 2f       	mov	r25, r24
    1926:	9f 7d       	andi	r25, 0xDF	; 223
    1928:	95 54       	subi	r25, 0x45	; 69
    192a:	93 30       	cpi	r25, 0x03	; 3
    192c:	28 f4       	brcc	.+10     	; 0x1938 <vfprintf+0xee>
    192e:	0c 5f       	subi	r16, 0xFC	; 252
    1930:	1f 4f       	sbci	r17, 0xFF	; 255
    1932:	ff e3       	ldi	r31, 0x3F	; 63
    1934:	f9 83       	std	Y+1, r31	; 0x01
    1936:	0d c0       	rjmp	.+26     	; 0x1952 <vfprintf+0x108>
    1938:	83 36       	cpi	r24, 0x63	; 99
    193a:	31 f0       	breq	.+12     	; 0x1948 <vfprintf+0xfe>
    193c:	83 37       	cpi	r24, 0x73	; 115
    193e:	71 f0       	breq	.+28     	; 0x195c <vfprintf+0x112>
    1940:	83 35       	cpi	r24, 0x53	; 83
    1942:	09 f0       	breq	.+2      	; 0x1946 <vfprintf+0xfc>
    1944:	5b c0       	rjmp	.+182    	; 0x19fc <vfprintf+0x1b2>
    1946:	22 c0       	rjmp	.+68     	; 0x198c <vfprintf+0x142>
    1948:	f8 01       	movw	r30, r16
    194a:	80 81       	ld	r24, Z
    194c:	89 83       	std	Y+1, r24	; 0x01
    194e:	0e 5f       	subi	r16, 0xFE	; 254
    1950:	1f 4f       	sbci	r17, 0xFF	; 255
    1952:	44 24       	eor	r4, r4
    1954:	43 94       	inc	r4
    1956:	51 2c       	mov	r5, r1
    1958:	54 01       	movw	r10, r8
    195a:	15 c0       	rjmp	.+42     	; 0x1986 <vfprintf+0x13c>
    195c:	38 01       	movw	r6, r16
    195e:	f2 e0       	ldi	r31, 0x02	; 2
    1960:	6f 0e       	add	r6, r31
    1962:	71 1c       	adc	r7, r1
    1964:	f8 01       	movw	r30, r16
    1966:	a0 80       	ld	r10, Z
    1968:	b1 80       	ldd	r11, Z+1	; 0x01
    196a:	26 ff       	sbrs	r18, 6
    196c:	03 c0       	rjmp	.+6      	; 0x1974 <vfprintf+0x12a>
    196e:	65 2d       	mov	r22, r5
    1970:	70 e0       	ldi	r23, 0x00	; 0
    1972:	02 c0       	rjmp	.+4      	; 0x1978 <vfprintf+0x12e>
    1974:	6f ef       	ldi	r22, 0xFF	; 255
    1976:	7f ef       	ldi	r23, 0xFF	; 255
    1978:	c5 01       	movw	r24, r10
    197a:	2c 87       	std	Y+12, r18	; 0x0c
    197c:	0e 94 02 0e 	call	0x1c04	; 0x1c04 <strnlen>
    1980:	2c 01       	movw	r4, r24
    1982:	83 01       	movw	r16, r6
    1984:	2c 85       	ldd	r18, Y+12	; 0x0c
    1986:	2f 77       	andi	r18, 0x7F	; 127
    1988:	22 2e       	mov	r2, r18
    198a:	17 c0       	rjmp	.+46     	; 0x19ba <vfprintf+0x170>
    198c:	38 01       	movw	r6, r16
    198e:	f2 e0       	ldi	r31, 0x02	; 2
    1990:	6f 0e       	add	r6, r31
    1992:	71 1c       	adc	r7, r1
    1994:	f8 01       	movw	r30, r16
    1996:	a0 80       	ld	r10, Z
    1998:	b1 80       	ldd	r11, Z+1	; 0x01
    199a:	26 ff       	sbrs	r18, 6
    199c:	03 c0       	rjmp	.+6      	; 0x19a4 <vfprintf+0x15a>
    199e:	65 2d       	mov	r22, r5
    19a0:	70 e0       	ldi	r23, 0x00	; 0
    19a2:	02 c0       	rjmp	.+4      	; 0x19a8 <vfprintf+0x15e>
    19a4:	6f ef       	ldi	r22, 0xFF	; 255
    19a6:	7f ef       	ldi	r23, 0xFF	; 255
    19a8:	c5 01       	movw	r24, r10
    19aa:	2c 87       	std	Y+12, r18	; 0x0c
    19ac:	0e 94 f7 0d 	call	0x1bee	; 0x1bee <strnlen_P>
    19b0:	2c 01       	movw	r4, r24
    19b2:	2c 85       	ldd	r18, Y+12	; 0x0c
    19b4:	20 68       	ori	r18, 0x80	; 128
    19b6:	22 2e       	mov	r2, r18
    19b8:	83 01       	movw	r16, r6
    19ba:	23 fc       	sbrc	r2, 3
    19bc:	1b c0       	rjmp	.+54     	; 0x19f4 <vfprintf+0x1aa>
    19be:	83 2d       	mov	r24, r3
    19c0:	90 e0       	ldi	r25, 0x00	; 0
    19c2:	48 16       	cp	r4, r24
    19c4:	59 06       	cpc	r5, r25
    19c6:	b0 f4       	brcc	.+44     	; 0x19f4 <vfprintf+0x1aa>
    19c8:	b7 01       	movw	r22, r14
    19ca:	80 e2       	ldi	r24, 0x20	; 32
    19cc:	90 e0       	ldi	r25, 0x00	; 0
    19ce:	0e 94 0d 0e 	call	0x1c1a	; 0x1c1a <fputc>
    19d2:	3a 94       	dec	r3
    19d4:	f4 cf       	rjmp	.-24     	; 0x19be <vfprintf+0x174>
    19d6:	f5 01       	movw	r30, r10
    19d8:	27 fc       	sbrc	r2, 7
    19da:	85 91       	lpm	r24, Z+
    19dc:	27 fe       	sbrs	r2, 7
    19de:	81 91       	ld	r24, Z+
    19e0:	5f 01       	movw	r10, r30
    19e2:	b7 01       	movw	r22, r14
    19e4:	90 e0       	ldi	r25, 0x00	; 0
    19e6:	0e 94 0d 0e 	call	0x1c1a	; 0x1c1a <fputc>
    19ea:	31 10       	cpse	r3, r1
    19ec:	3a 94       	dec	r3
    19ee:	f1 e0       	ldi	r31, 0x01	; 1
    19f0:	4f 1a       	sub	r4, r31
    19f2:	51 08       	sbc	r5, r1
    19f4:	41 14       	cp	r4, r1
    19f6:	51 04       	cpc	r5, r1
    19f8:	71 f7       	brne	.-36     	; 0x19d6 <vfprintf+0x18c>
    19fa:	e5 c0       	rjmp	.+458    	; 0x1bc6 <vfprintf+0x37c>
    19fc:	84 36       	cpi	r24, 0x64	; 100
    19fe:	11 f0       	breq	.+4      	; 0x1a04 <vfprintf+0x1ba>
    1a00:	89 36       	cpi	r24, 0x69	; 105
    1a02:	39 f5       	brne	.+78     	; 0x1a52 <vfprintf+0x208>
    1a04:	f8 01       	movw	r30, r16
    1a06:	27 ff       	sbrs	r18, 7
    1a08:	07 c0       	rjmp	.+14     	; 0x1a18 <vfprintf+0x1ce>
    1a0a:	60 81       	ld	r22, Z
    1a0c:	71 81       	ldd	r23, Z+1	; 0x01
    1a0e:	82 81       	ldd	r24, Z+2	; 0x02
    1a10:	93 81       	ldd	r25, Z+3	; 0x03
    1a12:	0c 5f       	subi	r16, 0xFC	; 252
    1a14:	1f 4f       	sbci	r17, 0xFF	; 255
    1a16:	08 c0       	rjmp	.+16     	; 0x1a28 <vfprintf+0x1de>
    1a18:	60 81       	ld	r22, Z
    1a1a:	71 81       	ldd	r23, Z+1	; 0x01
    1a1c:	07 2e       	mov	r0, r23
    1a1e:	00 0c       	add	r0, r0
    1a20:	88 0b       	sbc	r24, r24
    1a22:	99 0b       	sbc	r25, r25
    1a24:	0e 5f       	subi	r16, 0xFE	; 254
    1a26:	1f 4f       	sbci	r17, 0xFF	; 255
    1a28:	2f 76       	andi	r18, 0x6F	; 111
    1a2a:	72 2e       	mov	r7, r18
    1a2c:	97 ff       	sbrs	r25, 7
    1a2e:	09 c0       	rjmp	.+18     	; 0x1a42 <vfprintf+0x1f8>
    1a30:	90 95       	com	r25
    1a32:	80 95       	com	r24
    1a34:	70 95       	com	r23
    1a36:	61 95       	neg	r22
    1a38:	7f 4f       	sbci	r23, 0xFF	; 255
    1a3a:	8f 4f       	sbci	r24, 0xFF	; 255
    1a3c:	9f 4f       	sbci	r25, 0xFF	; 255
    1a3e:	20 68       	ori	r18, 0x80	; 128
    1a40:	72 2e       	mov	r7, r18
    1a42:	2a e0       	ldi	r18, 0x0A	; 10
    1a44:	30 e0       	ldi	r19, 0x00	; 0
    1a46:	a4 01       	movw	r20, r8
    1a48:	0e 94 45 0e 	call	0x1c8a	; 0x1c8a <__ultoa_invert>
    1a4c:	a8 2e       	mov	r10, r24
    1a4e:	a8 18       	sub	r10, r8
    1a50:	44 c0       	rjmp	.+136    	; 0x1ada <vfprintf+0x290>
    1a52:	85 37       	cpi	r24, 0x75	; 117
    1a54:	29 f4       	brne	.+10     	; 0x1a60 <vfprintf+0x216>
    1a56:	2f 7e       	andi	r18, 0xEF	; 239
    1a58:	b2 2e       	mov	r11, r18
    1a5a:	2a e0       	ldi	r18, 0x0A	; 10
    1a5c:	30 e0       	ldi	r19, 0x00	; 0
    1a5e:	25 c0       	rjmp	.+74     	; 0x1aaa <vfprintf+0x260>
    1a60:	f2 2f       	mov	r31, r18
    1a62:	f9 7f       	andi	r31, 0xF9	; 249
    1a64:	bf 2e       	mov	r11, r31
    1a66:	8f 36       	cpi	r24, 0x6F	; 111
    1a68:	c1 f0       	breq	.+48     	; 0x1a9a <vfprintf+0x250>
    1a6a:	18 f4       	brcc	.+6      	; 0x1a72 <vfprintf+0x228>
    1a6c:	88 35       	cpi	r24, 0x58	; 88
    1a6e:	79 f0       	breq	.+30     	; 0x1a8e <vfprintf+0x244>
    1a70:	b4 c0       	rjmp	.+360    	; 0x1bda <vfprintf+0x390>
    1a72:	80 37       	cpi	r24, 0x70	; 112
    1a74:	19 f0       	breq	.+6      	; 0x1a7c <vfprintf+0x232>
    1a76:	88 37       	cpi	r24, 0x78	; 120
    1a78:	21 f0       	breq	.+8      	; 0x1a82 <vfprintf+0x238>
    1a7a:	af c0       	rjmp	.+350    	; 0x1bda <vfprintf+0x390>
    1a7c:	2f 2f       	mov	r18, r31
    1a7e:	20 61       	ori	r18, 0x10	; 16
    1a80:	b2 2e       	mov	r11, r18
    1a82:	b4 fe       	sbrs	r11, 4
    1a84:	0d c0       	rjmp	.+26     	; 0x1aa0 <vfprintf+0x256>
    1a86:	8b 2d       	mov	r24, r11
    1a88:	84 60       	ori	r24, 0x04	; 4
    1a8a:	b8 2e       	mov	r11, r24
    1a8c:	09 c0       	rjmp	.+18     	; 0x1aa0 <vfprintf+0x256>
    1a8e:	24 ff       	sbrs	r18, 4
    1a90:	0a c0       	rjmp	.+20     	; 0x1aa6 <vfprintf+0x25c>
    1a92:	9f 2f       	mov	r25, r31
    1a94:	96 60       	ori	r25, 0x06	; 6
    1a96:	b9 2e       	mov	r11, r25
    1a98:	06 c0       	rjmp	.+12     	; 0x1aa6 <vfprintf+0x25c>
    1a9a:	28 e0       	ldi	r18, 0x08	; 8
    1a9c:	30 e0       	ldi	r19, 0x00	; 0
    1a9e:	05 c0       	rjmp	.+10     	; 0x1aaa <vfprintf+0x260>
    1aa0:	20 e1       	ldi	r18, 0x10	; 16
    1aa2:	30 e0       	ldi	r19, 0x00	; 0
    1aa4:	02 c0       	rjmp	.+4      	; 0x1aaa <vfprintf+0x260>
    1aa6:	20 e1       	ldi	r18, 0x10	; 16
    1aa8:	32 e0       	ldi	r19, 0x02	; 2
    1aaa:	f8 01       	movw	r30, r16
    1aac:	b7 fe       	sbrs	r11, 7
    1aae:	07 c0       	rjmp	.+14     	; 0x1abe <vfprintf+0x274>
    1ab0:	60 81       	ld	r22, Z
    1ab2:	71 81       	ldd	r23, Z+1	; 0x01
    1ab4:	82 81       	ldd	r24, Z+2	; 0x02
    1ab6:	93 81       	ldd	r25, Z+3	; 0x03
    1ab8:	0c 5f       	subi	r16, 0xFC	; 252
    1aba:	1f 4f       	sbci	r17, 0xFF	; 255
    1abc:	06 c0       	rjmp	.+12     	; 0x1aca <vfprintf+0x280>
    1abe:	60 81       	ld	r22, Z
    1ac0:	71 81       	ldd	r23, Z+1	; 0x01
    1ac2:	80 e0       	ldi	r24, 0x00	; 0
    1ac4:	90 e0       	ldi	r25, 0x00	; 0
    1ac6:	0e 5f       	subi	r16, 0xFE	; 254
    1ac8:	1f 4f       	sbci	r17, 0xFF	; 255
    1aca:	a4 01       	movw	r20, r8
    1acc:	0e 94 45 0e 	call	0x1c8a	; 0x1c8a <__ultoa_invert>
    1ad0:	a8 2e       	mov	r10, r24
    1ad2:	a8 18       	sub	r10, r8
    1ad4:	fb 2d       	mov	r31, r11
    1ad6:	ff 77       	andi	r31, 0x7F	; 127
    1ad8:	7f 2e       	mov	r7, r31
    1ada:	76 fe       	sbrs	r7, 6
    1adc:	0b c0       	rjmp	.+22     	; 0x1af4 <vfprintf+0x2aa>
    1ade:	37 2d       	mov	r19, r7
    1ae0:	3e 7f       	andi	r19, 0xFE	; 254
    1ae2:	a5 14       	cp	r10, r5
    1ae4:	50 f4       	brcc	.+20     	; 0x1afa <vfprintf+0x2b0>
    1ae6:	74 fe       	sbrs	r7, 4
    1ae8:	0a c0       	rjmp	.+20     	; 0x1afe <vfprintf+0x2b4>
    1aea:	72 fc       	sbrc	r7, 2
    1aec:	08 c0       	rjmp	.+16     	; 0x1afe <vfprintf+0x2b4>
    1aee:	37 2d       	mov	r19, r7
    1af0:	3e 7e       	andi	r19, 0xEE	; 238
    1af2:	05 c0       	rjmp	.+10     	; 0x1afe <vfprintf+0x2b4>
    1af4:	ba 2c       	mov	r11, r10
    1af6:	37 2d       	mov	r19, r7
    1af8:	03 c0       	rjmp	.+6      	; 0x1b00 <vfprintf+0x2b6>
    1afa:	ba 2c       	mov	r11, r10
    1afc:	01 c0       	rjmp	.+2      	; 0x1b00 <vfprintf+0x2b6>
    1afe:	b5 2c       	mov	r11, r5
    1b00:	34 ff       	sbrs	r19, 4
    1b02:	0d c0       	rjmp	.+26     	; 0x1b1e <vfprintf+0x2d4>
    1b04:	fe 01       	movw	r30, r28
    1b06:	ea 0d       	add	r30, r10
    1b08:	f1 1d       	adc	r31, r1
    1b0a:	80 81       	ld	r24, Z
    1b0c:	80 33       	cpi	r24, 0x30	; 48
    1b0e:	11 f4       	brne	.+4      	; 0x1b14 <vfprintf+0x2ca>
    1b10:	39 7e       	andi	r19, 0xE9	; 233
    1b12:	09 c0       	rjmp	.+18     	; 0x1b26 <vfprintf+0x2dc>
    1b14:	32 ff       	sbrs	r19, 2
    1b16:	06 c0       	rjmp	.+12     	; 0x1b24 <vfprintf+0x2da>
    1b18:	b3 94       	inc	r11
    1b1a:	b3 94       	inc	r11
    1b1c:	04 c0       	rjmp	.+8      	; 0x1b26 <vfprintf+0x2dc>
    1b1e:	83 2f       	mov	r24, r19
    1b20:	86 78       	andi	r24, 0x86	; 134
    1b22:	09 f0       	breq	.+2      	; 0x1b26 <vfprintf+0x2dc>
    1b24:	b3 94       	inc	r11
    1b26:	33 fd       	sbrc	r19, 3
    1b28:	13 c0       	rjmp	.+38     	; 0x1b50 <vfprintf+0x306>
    1b2a:	30 ff       	sbrs	r19, 0
    1b2c:	06 c0       	rjmp	.+12     	; 0x1b3a <vfprintf+0x2f0>
    1b2e:	5a 2c       	mov	r5, r10
    1b30:	b3 14       	cp	r11, r3
    1b32:	18 f4       	brcc	.+6      	; 0x1b3a <vfprintf+0x2f0>
    1b34:	53 0c       	add	r5, r3
    1b36:	5b 18       	sub	r5, r11
    1b38:	b3 2c       	mov	r11, r3
    1b3a:	b3 14       	cp	r11, r3
    1b3c:	68 f4       	brcc	.+26     	; 0x1b58 <vfprintf+0x30e>
    1b3e:	b7 01       	movw	r22, r14
    1b40:	80 e2       	ldi	r24, 0x20	; 32
    1b42:	90 e0       	ldi	r25, 0x00	; 0
    1b44:	3c 87       	std	Y+12, r19	; 0x0c
    1b46:	0e 94 0d 0e 	call	0x1c1a	; 0x1c1a <fputc>
    1b4a:	b3 94       	inc	r11
    1b4c:	3c 85       	ldd	r19, Y+12	; 0x0c
    1b4e:	f5 cf       	rjmp	.-22     	; 0x1b3a <vfprintf+0x2f0>
    1b50:	b3 14       	cp	r11, r3
    1b52:	10 f4       	brcc	.+4      	; 0x1b58 <vfprintf+0x30e>
    1b54:	3b 18       	sub	r3, r11
    1b56:	01 c0       	rjmp	.+2      	; 0x1b5a <vfprintf+0x310>
    1b58:	31 2c       	mov	r3, r1
    1b5a:	34 ff       	sbrs	r19, 4
    1b5c:	12 c0       	rjmp	.+36     	; 0x1b82 <vfprintf+0x338>
    1b5e:	b7 01       	movw	r22, r14
    1b60:	80 e3       	ldi	r24, 0x30	; 48
    1b62:	90 e0       	ldi	r25, 0x00	; 0
    1b64:	3c 87       	std	Y+12, r19	; 0x0c
    1b66:	0e 94 0d 0e 	call	0x1c1a	; 0x1c1a <fputc>
    1b6a:	3c 85       	ldd	r19, Y+12	; 0x0c
    1b6c:	32 ff       	sbrs	r19, 2
    1b6e:	17 c0       	rjmp	.+46     	; 0x1b9e <vfprintf+0x354>
    1b70:	31 fd       	sbrc	r19, 1
    1b72:	03 c0       	rjmp	.+6      	; 0x1b7a <vfprintf+0x330>
    1b74:	88 e7       	ldi	r24, 0x78	; 120
    1b76:	90 e0       	ldi	r25, 0x00	; 0
    1b78:	02 c0       	rjmp	.+4      	; 0x1b7e <vfprintf+0x334>
    1b7a:	88 e5       	ldi	r24, 0x58	; 88
    1b7c:	90 e0       	ldi	r25, 0x00	; 0
    1b7e:	b7 01       	movw	r22, r14
    1b80:	0c c0       	rjmp	.+24     	; 0x1b9a <vfprintf+0x350>
    1b82:	83 2f       	mov	r24, r19
    1b84:	86 78       	andi	r24, 0x86	; 134
    1b86:	59 f0       	breq	.+22     	; 0x1b9e <vfprintf+0x354>
    1b88:	31 ff       	sbrs	r19, 1
    1b8a:	02 c0       	rjmp	.+4      	; 0x1b90 <vfprintf+0x346>
    1b8c:	8b e2       	ldi	r24, 0x2B	; 43
    1b8e:	01 c0       	rjmp	.+2      	; 0x1b92 <vfprintf+0x348>
    1b90:	80 e2       	ldi	r24, 0x20	; 32
    1b92:	37 fd       	sbrc	r19, 7
    1b94:	8d e2       	ldi	r24, 0x2D	; 45
    1b96:	b7 01       	movw	r22, r14
    1b98:	90 e0       	ldi	r25, 0x00	; 0
    1b9a:	0e 94 0d 0e 	call	0x1c1a	; 0x1c1a <fputc>
    1b9e:	a5 14       	cp	r10, r5
    1ba0:	38 f4       	brcc	.+14     	; 0x1bb0 <vfprintf+0x366>
    1ba2:	b7 01       	movw	r22, r14
    1ba4:	80 e3       	ldi	r24, 0x30	; 48
    1ba6:	90 e0       	ldi	r25, 0x00	; 0
    1ba8:	0e 94 0d 0e 	call	0x1c1a	; 0x1c1a <fputc>
    1bac:	5a 94       	dec	r5
    1bae:	f7 cf       	rjmp	.-18     	; 0x1b9e <vfprintf+0x354>
    1bb0:	aa 94       	dec	r10
    1bb2:	f4 01       	movw	r30, r8
    1bb4:	ea 0d       	add	r30, r10
    1bb6:	f1 1d       	adc	r31, r1
    1bb8:	80 81       	ld	r24, Z
    1bba:	b7 01       	movw	r22, r14
    1bbc:	90 e0       	ldi	r25, 0x00	; 0
    1bbe:	0e 94 0d 0e 	call	0x1c1a	; 0x1c1a <fputc>
    1bc2:	a1 10       	cpse	r10, r1
    1bc4:	f5 cf       	rjmp	.-22     	; 0x1bb0 <vfprintf+0x366>
    1bc6:	33 20       	and	r3, r3
    1bc8:	09 f4       	brne	.+2      	; 0x1bcc <vfprintf+0x382>
    1bca:	51 ce       	rjmp	.-862    	; 0x186e <vfprintf+0x24>
    1bcc:	b7 01       	movw	r22, r14
    1bce:	80 e2       	ldi	r24, 0x20	; 32
    1bd0:	90 e0       	ldi	r25, 0x00	; 0
    1bd2:	0e 94 0d 0e 	call	0x1c1a	; 0x1c1a <fputc>
    1bd6:	3a 94       	dec	r3
    1bd8:	f6 cf       	rjmp	.-20     	; 0x1bc6 <vfprintf+0x37c>
    1bda:	f7 01       	movw	r30, r14
    1bdc:	86 81       	ldd	r24, Z+6	; 0x06
    1bde:	97 81       	ldd	r25, Z+7	; 0x07
    1be0:	02 c0       	rjmp	.+4      	; 0x1be6 <vfprintf+0x39c>
    1be2:	8f ef       	ldi	r24, 0xFF	; 255
    1be4:	9f ef       	ldi	r25, 0xFF	; 255
    1be6:	2c 96       	adiw	r28, 0x0c	; 12
    1be8:	e2 e1       	ldi	r30, 0x12	; 18
    1bea:	0c 94 bf 0e 	jmp	0x1d7e	; 0x1d7e <__epilogue_restores__>

00001bee <strnlen_P>:
    1bee:	fc 01       	movw	r30, r24
    1bf0:	05 90       	lpm	r0, Z+
    1bf2:	61 50       	subi	r22, 0x01	; 1
    1bf4:	70 40       	sbci	r23, 0x00	; 0
    1bf6:	01 10       	cpse	r0, r1
    1bf8:	d8 f7       	brcc	.-10     	; 0x1bf0 <strnlen_P+0x2>
    1bfa:	80 95       	com	r24
    1bfc:	90 95       	com	r25
    1bfe:	8e 0f       	add	r24, r30
    1c00:	9f 1f       	adc	r25, r31
    1c02:	08 95       	ret

00001c04 <strnlen>:
    1c04:	fc 01       	movw	r30, r24
    1c06:	61 50       	subi	r22, 0x01	; 1
    1c08:	70 40       	sbci	r23, 0x00	; 0
    1c0a:	01 90       	ld	r0, Z+
    1c0c:	01 10       	cpse	r0, r1
    1c0e:	d8 f7       	brcc	.-10     	; 0x1c06 <strnlen+0x2>
    1c10:	80 95       	com	r24
    1c12:	90 95       	com	r25
    1c14:	8e 0f       	add	r24, r30
    1c16:	9f 1f       	adc	r25, r31
    1c18:	08 95       	ret

00001c1a <fputc>:
    1c1a:	0f 93       	push	r16
    1c1c:	1f 93       	push	r17
    1c1e:	cf 93       	push	r28
    1c20:	df 93       	push	r29
    1c22:	fb 01       	movw	r30, r22
    1c24:	23 81       	ldd	r18, Z+3	; 0x03
    1c26:	21 fd       	sbrc	r18, 1
    1c28:	03 c0       	rjmp	.+6      	; 0x1c30 <fputc+0x16>
    1c2a:	8f ef       	ldi	r24, 0xFF	; 255
    1c2c:	9f ef       	ldi	r25, 0xFF	; 255
    1c2e:	28 c0       	rjmp	.+80     	; 0x1c80 <fputc+0x66>
    1c30:	22 ff       	sbrs	r18, 2
    1c32:	16 c0       	rjmp	.+44     	; 0x1c60 <fputc+0x46>
    1c34:	46 81       	ldd	r20, Z+6	; 0x06
    1c36:	57 81       	ldd	r21, Z+7	; 0x07
    1c38:	24 81       	ldd	r18, Z+4	; 0x04
    1c3a:	35 81       	ldd	r19, Z+5	; 0x05
    1c3c:	42 17       	cp	r20, r18
    1c3e:	53 07       	cpc	r21, r19
    1c40:	44 f4       	brge	.+16     	; 0x1c52 <fputc+0x38>
    1c42:	a0 81       	ld	r26, Z
    1c44:	b1 81       	ldd	r27, Z+1	; 0x01
    1c46:	9d 01       	movw	r18, r26
    1c48:	2f 5f       	subi	r18, 0xFF	; 255
    1c4a:	3f 4f       	sbci	r19, 0xFF	; 255
    1c4c:	31 83       	std	Z+1, r19	; 0x01
    1c4e:	20 83       	st	Z, r18
    1c50:	8c 93       	st	X, r24
    1c52:	26 81       	ldd	r18, Z+6	; 0x06
    1c54:	37 81       	ldd	r19, Z+7	; 0x07
    1c56:	2f 5f       	subi	r18, 0xFF	; 255
    1c58:	3f 4f       	sbci	r19, 0xFF	; 255
    1c5a:	37 83       	std	Z+7, r19	; 0x07
    1c5c:	26 83       	std	Z+6, r18	; 0x06
    1c5e:	10 c0       	rjmp	.+32     	; 0x1c80 <fputc+0x66>
    1c60:	eb 01       	movw	r28, r22
    1c62:	09 2f       	mov	r16, r25
    1c64:	18 2f       	mov	r17, r24
    1c66:	00 84       	ldd	r0, Z+8	; 0x08
    1c68:	f1 85       	ldd	r31, Z+9	; 0x09
    1c6a:	e0 2d       	mov	r30, r0
    1c6c:	09 95       	icall
    1c6e:	89 2b       	or	r24, r25
    1c70:	e1 f6       	brne	.-72     	; 0x1c2a <fputc+0x10>
    1c72:	8e 81       	ldd	r24, Y+6	; 0x06
    1c74:	9f 81       	ldd	r25, Y+7	; 0x07
    1c76:	01 96       	adiw	r24, 0x01	; 1
    1c78:	9f 83       	std	Y+7, r25	; 0x07
    1c7a:	8e 83       	std	Y+6, r24	; 0x06
    1c7c:	81 2f       	mov	r24, r17
    1c7e:	90 2f       	mov	r25, r16
    1c80:	df 91       	pop	r29
    1c82:	cf 91       	pop	r28
    1c84:	1f 91       	pop	r17
    1c86:	0f 91       	pop	r16
    1c88:	08 95       	ret

00001c8a <__ultoa_invert>:
    1c8a:	fa 01       	movw	r30, r20
    1c8c:	aa 27       	eor	r26, r26
    1c8e:	28 30       	cpi	r18, 0x08	; 8
    1c90:	51 f1       	breq	.+84     	; 0x1ce6 <__ultoa_invert+0x5c>
    1c92:	20 31       	cpi	r18, 0x10	; 16
    1c94:	81 f1       	breq	.+96     	; 0x1cf6 <__ultoa_invert+0x6c>
    1c96:	e8 94       	clt
    1c98:	6f 93       	push	r22
    1c9a:	6e 7f       	andi	r22, 0xFE	; 254
    1c9c:	6e 5f       	subi	r22, 0xFE	; 254
    1c9e:	7f 4f       	sbci	r23, 0xFF	; 255
    1ca0:	8f 4f       	sbci	r24, 0xFF	; 255
    1ca2:	9f 4f       	sbci	r25, 0xFF	; 255
    1ca4:	af 4f       	sbci	r26, 0xFF	; 255
    1ca6:	b1 e0       	ldi	r27, 0x01	; 1
    1ca8:	3e d0       	rcall	.+124    	; 0x1d26 <__ultoa_invert+0x9c>
    1caa:	b4 e0       	ldi	r27, 0x04	; 4
    1cac:	3c d0       	rcall	.+120    	; 0x1d26 <__ultoa_invert+0x9c>
    1cae:	67 0f       	add	r22, r23
    1cb0:	78 1f       	adc	r23, r24
    1cb2:	89 1f       	adc	r24, r25
    1cb4:	9a 1f       	adc	r25, r26
    1cb6:	a1 1d       	adc	r26, r1
    1cb8:	68 0f       	add	r22, r24
    1cba:	79 1f       	adc	r23, r25
    1cbc:	8a 1f       	adc	r24, r26
    1cbe:	91 1d       	adc	r25, r1
    1cc0:	a1 1d       	adc	r26, r1
    1cc2:	6a 0f       	add	r22, r26
    1cc4:	71 1d       	adc	r23, r1
    1cc6:	81 1d       	adc	r24, r1
    1cc8:	91 1d       	adc	r25, r1
    1cca:	a1 1d       	adc	r26, r1
    1ccc:	20 d0       	rcall	.+64     	; 0x1d0e <__ultoa_invert+0x84>
    1cce:	09 f4       	brne	.+2      	; 0x1cd2 <__ultoa_invert+0x48>
    1cd0:	68 94       	set
    1cd2:	3f 91       	pop	r19
    1cd4:	2a e0       	ldi	r18, 0x0A	; 10
    1cd6:	26 9f       	mul	r18, r22
    1cd8:	11 24       	eor	r1, r1
    1cda:	30 19       	sub	r19, r0
    1cdc:	30 5d       	subi	r19, 0xD0	; 208
    1cde:	31 93       	st	Z+, r19
    1ce0:	de f6       	brtc	.-74     	; 0x1c98 <__ultoa_invert+0xe>
    1ce2:	cf 01       	movw	r24, r30
    1ce4:	08 95       	ret
    1ce6:	46 2f       	mov	r20, r22
    1ce8:	47 70       	andi	r20, 0x07	; 7
    1cea:	40 5d       	subi	r20, 0xD0	; 208
    1cec:	41 93       	st	Z+, r20
    1cee:	b3 e0       	ldi	r27, 0x03	; 3
    1cf0:	0f d0       	rcall	.+30     	; 0x1d10 <__ultoa_invert+0x86>
    1cf2:	c9 f7       	brne	.-14     	; 0x1ce6 <__ultoa_invert+0x5c>
    1cf4:	f6 cf       	rjmp	.-20     	; 0x1ce2 <__ultoa_invert+0x58>
    1cf6:	46 2f       	mov	r20, r22
    1cf8:	4f 70       	andi	r20, 0x0F	; 15
    1cfa:	40 5d       	subi	r20, 0xD0	; 208
    1cfc:	4a 33       	cpi	r20, 0x3A	; 58
    1cfe:	18 f0       	brcs	.+6      	; 0x1d06 <__ultoa_invert+0x7c>
    1d00:	49 5d       	subi	r20, 0xD9	; 217
    1d02:	31 fd       	sbrc	r19, 1
    1d04:	40 52       	subi	r20, 0x20	; 32
    1d06:	41 93       	st	Z+, r20
    1d08:	02 d0       	rcall	.+4      	; 0x1d0e <__ultoa_invert+0x84>
    1d0a:	a9 f7       	brne	.-22     	; 0x1cf6 <__ultoa_invert+0x6c>
    1d0c:	ea cf       	rjmp	.-44     	; 0x1ce2 <__ultoa_invert+0x58>
    1d0e:	b4 e0       	ldi	r27, 0x04	; 4
    1d10:	a6 95       	lsr	r26
    1d12:	97 95       	ror	r25
    1d14:	87 95       	ror	r24
    1d16:	77 95       	ror	r23
    1d18:	67 95       	ror	r22
    1d1a:	ba 95       	dec	r27
    1d1c:	c9 f7       	brne	.-14     	; 0x1d10 <__ultoa_invert+0x86>
    1d1e:	00 97       	sbiw	r24, 0x00	; 0
    1d20:	61 05       	cpc	r22, r1
    1d22:	71 05       	cpc	r23, r1
    1d24:	08 95       	ret
    1d26:	9b 01       	movw	r18, r22
    1d28:	ac 01       	movw	r20, r24
    1d2a:	0a 2e       	mov	r0, r26
    1d2c:	06 94       	lsr	r0
    1d2e:	57 95       	ror	r21
    1d30:	47 95       	ror	r20
    1d32:	37 95       	ror	r19
    1d34:	27 95       	ror	r18
    1d36:	ba 95       	dec	r27
    1d38:	c9 f7       	brne	.-14     	; 0x1d2c <__ultoa_invert+0xa2>
    1d3a:	62 0f       	add	r22, r18
    1d3c:	73 1f       	adc	r23, r19
    1d3e:	84 1f       	adc	r24, r20
    1d40:	95 1f       	adc	r25, r21
    1d42:	a0 1d       	adc	r26, r0
    1d44:	08 95       	ret

00001d46 <__prologue_saves__>:
    1d46:	2f 92       	push	r2
    1d48:	3f 92       	push	r3
    1d4a:	4f 92       	push	r4
    1d4c:	5f 92       	push	r5
    1d4e:	6f 92       	push	r6
    1d50:	7f 92       	push	r7
    1d52:	8f 92       	push	r8
    1d54:	9f 92       	push	r9
    1d56:	af 92       	push	r10
    1d58:	bf 92       	push	r11
    1d5a:	cf 92       	push	r12
    1d5c:	df 92       	push	r13
    1d5e:	ef 92       	push	r14
    1d60:	ff 92       	push	r15
    1d62:	0f 93       	push	r16
    1d64:	1f 93       	push	r17
    1d66:	cf 93       	push	r28
    1d68:	df 93       	push	r29
    1d6a:	cd b7       	in	r28, 0x3d	; 61
    1d6c:	de b7       	in	r29, 0x3e	; 62
    1d6e:	ca 1b       	sub	r28, r26
    1d70:	db 0b       	sbc	r29, r27
    1d72:	0f b6       	in	r0, 0x3f	; 63
    1d74:	f8 94       	cli
    1d76:	de bf       	out	0x3e, r29	; 62
    1d78:	0f be       	out	0x3f, r0	; 63
    1d7a:	cd bf       	out	0x3d, r28	; 61
    1d7c:	09 94       	ijmp

00001d7e <__epilogue_restores__>:
    1d7e:	2a 88       	ldd	r2, Y+18	; 0x12
    1d80:	39 88       	ldd	r3, Y+17	; 0x11
    1d82:	48 88       	ldd	r4, Y+16	; 0x10
    1d84:	5f 84       	ldd	r5, Y+15	; 0x0f
    1d86:	6e 84       	ldd	r6, Y+14	; 0x0e
    1d88:	7d 84       	ldd	r7, Y+13	; 0x0d
    1d8a:	8c 84       	ldd	r8, Y+12	; 0x0c
    1d8c:	9b 84       	ldd	r9, Y+11	; 0x0b
    1d8e:	aa 84       	ldd	r10, Y+10	; 0x0a
    1d90:	b9 84       	ldd	r11, Y+9	; 0x09
    1d92:	c8 84       	ldd	r12, Y+8	; 0x08
    1d94:	df 80       	ldd	r13, Y+7	; 0x07
    1d96:	ee 80       	ldd	r14, Y+6	; 0x06
    1d98:	fd 80       	ldd	r15, Y+5	; 0x05
    1d9a:	0c 81       	ldd	r16, Y+4	; 0x04
    1d9c:	1b 81       	ldd	r17, Y+3	; 0x03
    1d9e:	aa 81       	ldd	r26, Y+2	; 0x02
    1da0:	b9 81       	ldd	r27, Y+1	; 0x01
    1da2:	ce 0f       	add	r28, r30
    1da4:	d1 1d       	adc	r29, r1
    1da6:	0f b6       	in	r0, 0x3f	; 63
    1da8:	f8 94       	cli
    1daa:	de bf       	out	0x3e, r29	; 62
    1dac:	0f be       	out	0x3f, r0	; 63
    1dae:	cd bf       	out	0x3d, r28	; 61
    1db0:	ed 01       	movw	r28, r26
    1db2:	08 95       	ret

00001db4 <_exit>:
    1db4:	f8 94       	cli

00001db6 <__stop_program>:
    1db6:	ff cf       	rjmp	.-2      	; 0x1db6 <__stop_program>
