
Projeto_Final.elf:     file format elf32-avr

Sections:
Idx Name          Size      VMA       LMA       File off  Algn
  0 .data         0000000e  00800100  000003e0  00000474  2**0
                  CONTENTS, ALLOC, LOAD, DATA
  1 .text         000003e0  00000000  00000000  00000094  2**1
                  CONTENTS, ALLOC, LOAD, READONLY, CODE
  2 .bss          0000000c  0080010e  0080010e  00000482  2**0
                  ALLOC
  3 .comment      00000011  00000000  00000000  00000482  2**0
                  CONTENTS, READONLY
  4 .note.gnu.avr.deviceinfo 00000040  00000000  00000000  00000494  2**2
                  CONTENTS, READONLY

Disassembly of section .text:

00000000 <__vectors>:
   0:	0c 94 34 00 	jmp	0x68	; 0x68 <__ctors_end>
   4:	0c 94 51 00 	jmp	0xa2	; 0xa2 <__bad_interrupt>
   8:	0c 94 51 00 	jmp	0xa2	; 0xa2 <__bad_interrupt>
   c:	0c 94 51 00 	jmp	0xa2	; 0xa2 <__bad_interrupt>
  10:	0c 94 51 00 	jmp	0xa2	; 0xa2 <__bad_interrupt>
  14:	0c 94 51 00 	jmp	0xa2	; 0xa2 <__bad_interrupt>
  18:	0c 94 51 00 	jmp	0xa2	; 0xa2 <__bad_interrupt>
  1c:	0c 94 51 00 	jmp	0xa2	; 0xa2 <__bad_interrupt>
  20:	0c 94 51 00 	jmp	0xa2	; 0xa2 <__bad_interrupt>
  24:	0c 94 51 00 	jmp	0xa2	; 0xa2 <__bad_interrupt>
  28:	0c 94 51 00 	jmp	0xa2	; 0xa2 <__bad_interrupt>
  2c:	0c 94 51 00 	jmp	0xa2	; 0xa2 <__bad_interrupt>
  30:	0c 94 51 00 	jmp	0xa2	; 0xa2 <__bad_interrupt>
  34:	0c 94 51 00 	jmp	0xa2	; 0xa2 <__bad_interrupt>
  38:	0c 94 51 00 	jmp	0xa2	; 0xa2 <__bad_interrupt>
  3c:	0c 94 51 00 	jmp	0xa2	; 0xa2 <__bad_interrupt>
  40:	0c 94 51 00 	jmp	0xa2	; 0xa2 <__bad_interrupt>
  44:	0c 94 51 00 	jmp	0xa2	; 0xa2 <__bad_interrupt>
  48:	0c 94 51 00 	jmp	0xa2	; 0xa2 <__bad_interrupt>
  4c:	0c 94 51 00 	jmp	0xa2	; 0xa2 <__bad_interrupt>
  50:	0c 94 51 00 	jmp	0xa2	; 0xa2 <__bad_interrupt>
  54:	0c 94 51 00 	jmp	0xa2	; 0xa2 <__bad_interrupt>
  58:	0c 94 51 00 	jmp	0xa2	; 0xa2 <__bad_interrupt>
  5c:	0c 94 51 00 	jmp	0xa2	; 0xa2 <__bad_interrupt>
  60:	0c 94 51 00 	jmp	0xa2	; 0xa2 <__bad_interrupt>
  64:	0c 94 51 00 	jmp	0xa2	; 0xa2 <__bad_interrupt>

00000068 <__ctors_end>:
  68:	11 24       	eor	r1, r1
  6a:	1f be       	out	0x3f, r1	; 63
  6c:	cf ef       	ldi	r28, 0xFF	; 255
  6e:	d8 e0       	ldi	r29, 0x08	; 8
  70:	de bf       	out	0x3e, r29	; 62
  72:	cd bf       	out	0x3d, r28	; 61

00000074 <__do_copy_data>:
  74:	11 e0       	ldi	r17, 0x01	; 1
  76:	a0 e0       	ldi	r26, 0x00	; 0
  78:	b1 e0       	ldi	r27, 0x01	; 1
  7a:	e0 ee       	ldi	r30, 0xE0	; 224
  7c:	f3 e0       	ldi	r31, 0x03	; 3
  7e:	02 c0       	rjmp	.+4      	; 0x84 <__do_copy_data+0x10>
  80:	05 90       	lpm	r0, Z+
  82:	0d 92       	st	X+, r0
  84:	ae 30       	cpi	r26, 0x0E	; 14
  86:	b1 07       	cpc	r27, r17
  88:	d9 f7       	brne	.-10     	; 0x80 <__do_copy_data+0xc>

0000008a <__do_clear_bss>:
  8a:	21 e0       	ldi	r18, 0x01	; 1
  8c:	ae e0       	ldi	r26, 0x0E	; 14
  8e:	b1 e0       	ldi	r27, 0x01	; 1
  90:	01 c0       	rjmp	.+2      	; 0x94 <.do_clear_bss_start>

00000092 <.do_clear_bss_loop>:
  92:	1d 92       	st	X+, r1

00000094 <.do_clear_bss_start>:
  94:	aa 31       	cpi	r26, 0x1A	; 26
  96:	b2 07       	cpc	r27, r18
  98:	e1 f7       	brne	.-8      	; 0x92 <.do_clear_bss_loop>
  9a:	0e 94 8c 01 	call	0x318	; 0x318 <main>
  9e:	0c 94 ee 01 	jmp	0x3dc	; 0x3dc <_exit>

000000a2 <__bad_interrupt>:
  a2:	0c 94 00 00 	jmp	0	; 0x0 <__vectors>

000000a6 <lcd_data>:
  a6:	85 b9       	out	0x05, r24	; 5
  a8:	28 9a       	sbi	0x05, 0	; 5
  aa:	29 98       	cbi	0x05, 1	; 5
  ac:	2a 9a       	sbi	0x05, 2	; 5
  ae:	8f e9       	ldi	r24, 0x9F	; 159
  b0:	9f e0       	ldi	r25, 0x0F	; 15
  b2:	01 97       	sbiw	r24, 0x01	; 1
  b4:	f1 f7       	brne	.-4      	; 0xb2 <lcd_data+0xc>
  b6:	00 c0       	rjmp	.+0      	; 0xb8 <lcd_data+0x12>
  b8:	00 00       	nop
  ba:	2a 98       	cbi	0x05, 2	; 5
  bc:	9f ef       	ldi	r25, 0xFF	; 255
  be:	23 ef       	ldi	r18, 0xF3	; 243
  c0:	81 e0       	ldi	r24, 0x01	; 1
  c2:	91 50       	subi	r25, 0x01	; 1
  c4:	20 40       	sbci	r18, 0x00	; 0
  c6:	80 40       	sbci	r24, 0x00	; 0
  c8:	e1 f7       	brne	.-8      	; 0xc2 <lcd_data+0x1c>
  ca:	00 c0       	rjmp	.+0      	; 0xcc <lcd_data+0x26>
  cc:	00 00       	nop
  ce:	08 95       	ret

000000d0 <lcdData>:
  d0:	cf 93       	push	r28
  d2:	c8 2f       	mov	r28, r24
  d4:	80 7f       	andi	r24, 0xF0	; 240
  d6:	0e 94 53 00 	call	0xa6	; 0xa6 <lcd_data>
  da:	8c 2f       	mov	r24, r28
  dc:	82 95       	swap	r24
  de:	80 7f       	andi	r24, 0xF0	; 240
  e0:	cf 91       	pop	r28
  e2:	0c 94 53 00 	jmp	0xa6	; 0xa6 <lcd_data>

000000e6 <lcd_print>:
  e6:	cf 93       	push	r28
  e8:	df 93       	push	r29
  ea:	ec 01       	movw	r28, r24
  ec:	89 91       	ld	r24, Y+
  ee:	88 23       	and	r24, r24
  f0:	19 f0       	breq	.+6      	; 0xf8 <lcd_print+0x12>
  f2:	0e 94 68 00 	call	0xd0	; 0xd0 <lcdData>
  f6:	fa cf       	rjmp	.-12     	; 0xec <lcd_print+0x6>
  f8:	df 91       	pop	r29
  fa:	cf 91       	pop	r28
  fc:	08 95       	ret

000000fe <lcd_command>:
  fe:	85 b9       	out	0x05, r24	; 5
 100:	28 98       	cbi	0x05, 0	; 5
 102:	29 98       	cbi	0x05, 1	; 5
 104:	2a 9a       	sbi	0x05, 2	; 5
 106:	8f e9       	ldi	r24, 0x9F	; 159
 108:	9f e0       	ldi	r25, 0x0F	; 15
 10a:	01 97       	sbiw	r24, 0x01	; 1
 10c:	f1 f7       	brne	.-4      	; 0x10a <lcd_command+0xc>
 10e:	00 c0       	rjmp	.+0      	; 0x110 <lcd_command+0x12>
 110:	00 00       	nop
 112:	2a 98       	cbi	0x05, 2	; 5
 114:	9f ef       	ldi	r25, 0xFF	; 255
 116:	23 ef       	ldi	r18, 0xF3	; 243
 118:	81 e0       	ldi	r24, 0x01	; 1
 11a:	91 50       	subi	r25, 0x01	; 1
 11c:	20 40       	sbci	r18, 0x00	; 0
 11e:	80 40       	sbci	r24, 0x00	; 0
 120:	e1 f7       	brne	.-8      	; 0x11a <lcd_command+0x1c>
 122:	00 c0       	rjmp	.+0      	; 0x124 <lcd_command+0x26>
 124:	00 00       	nop
 126:	08 95       	ret

00000128 <lcdCommand>:
 128:	cf 93       	push	r28
 12a:	c8 2f       	mov	r28, r24
 12c:	80 7f       	andi	r24, 0xF0	; 240
 12e:	0e 94 7f 00 	call	0xfe	; 0xfe <lcd_command>
 132:	8c 2f       	mov	r24, r28
 134:	82 95       	swap	r24
 136:	80 7f       	andi	r24, 0xF0	; 240
 138:	cf 91       	pop	r28
 13a:	0c 94 7f 00 	jmp	0xfe	; 0xfe <lcd_command>

0000013e <lcd_init>:
 13e:	82 e0       	ldi	r24, 0x02	; 2
 140:	0e 94 94 00 	call	0x128	; 0x128 <lcdCommand>
 144:	8f e9       	ldi	r24, 0x9F	; 159
 146:	9f e0       	ldi	r25, 0x0F	; 15
 148:	01 97       	sbiw	r24, 0x01	; 1
 14a:	f1 f7       	brne	.-4      	; 0x148 <lcd_init+0xa>
 14c:	00 c0       	rjmp	.+0      	; 0x14e <lcd_init+0x10>
 14e:	00 00       	nop
 150:	88 e2       	ldi	r24, 0x28	; 40
 152:	0e 94 94 00 	call	0x128	; 0x128 <lcdCommand>
 156:	8f e9       	ldi	r24, 0x9F	; 159
 158:	9f e0       	ldi	r25, 0x0F	; 15
 15a:	01 97       	sbiw	r24, 0x01	; 1
 15c:	f1 f7       	brne	.-4      	; 0x15a <lcd_init+0x1c>
 15e:	00 c0       	rjmp	.+0      	; 0x160 <lcd_init+0x22>
 160:	00 00       	nop
 162:	81 e0       	ldi	r24, 0x01	; 1
 164:	0e 94 94 00 	call	0x128	; 0x128 <lcdCommand>
 168:	8f e9       	ldi	r24, 0x9F	; 159
 16a:	9f e0       	ldi	r25, 0x0F	; 15
 16c:	01 97       	sbiw	r24, 0x01	; 1
 16e:	f1 f7       	brne	.-4      	; 0x16c <lcd_init+0x2e>
 170:	00 c0       	rjmp	.+0      	; 0x172 <lcd_init+0x34>
 172:	00 00       	nop
 174:	8e e0       	ldi	r24, 0x0E	; 14
 176:	0e 94 94 00 	call	0x128	; 0x128 <lcdCommand>
 17a:	8f e9       	ldi	r24, 0x9F	; 159
 17c:	9f e0       	ldi	r25, 0x0F	; 15
 17e:	01 97       	sbiw	r24, 0x01	; 1
 180:	f1 f7       	brne	.-4      	; 0x17e <lcd_init+0x40>
 182:	00 c0       	rjmp	.+0      	; 0x184 <lcd_init+0x46>
 184:	00 00       	nop
 186:	80 e8       	ldi	r24, 0x80	; 128
 188:	0e 94 94 00 	call	0x128	; 0x128 <lcdCommand>
 18c:	8f e9       	ldi	r24, 0x9F	; 159
 18e:	9f e0       	ldi	r25, 0x0F	; 15
 190:	01 97       	sbiw	r24, 0x01	; 1
 192:	f1 f7       	brne	.-4      	; 0x190 <lcd_init+0x52>
 194:	00 c0       	rjmp	.+0      	; 0x196 <lcd_init+0x58>
 196:	00 00       	nop
 198:	08 95       	ret

0000019a <init_usart>:
 19a:	10 92 c5 00 	sts	0x00C5, r1
 19e:	8f ec       	ldi	r24, 0xCF	; 207
 1a0:	80 93 c4 00 	sts	0x00C4, r24
 1a4:	86 e0       	ldi	r24, 0x06	; 6
 1a6:	80 93 c2 00 	sts	0x00C2, r24
 1aa:	82 e0       	ldi	r24, 0x02	; 2
 1ac:	80 93 c0 00 	sts	0x00C0, r24
 1b0:	88 e1       	ldi	r24, 0x18	; 24
 1b2:	80 93 c1 00 	sts	0x00C1, r24
 1b6:	08 95       	ret

000001b8 <Send_Data>:
 1b8:	90 91 c0 00 	lds	r25, 0x00C0
 1bc:	95 ff       	sbrs	r25, 5
 1be:	fc cf       	rjmp	.-8      	; 0x1b8 <Send_Data>
 1c0:	80 93 c6 00 	sts	0x00C6, r24
 1c4:	08 95       	ret

000001c6 <Send_Sensores>:
 1c6:	cf 93       	push	r28
 1c8:	df 93       	push	r29
 1ca:	ec 01       	movw	r28, r24
 1cc:	88 81       	ld	r24, Y
 1ce:	81 11       	cpse	r24, r1
 1d0:	02 c0       	rjmp	.+4      	; 0x1d6 <Send_Sensores+0x10>
 1d2:	81 e0       	ldi	r24, 0x01	; 1
 1d4:	01 c0       	rjmp	.+2      	; 0x1d8 <Send_Sensores+0x12>
 1d6:	8b e0       	ldi	r24, 0x0B	; 11
 1d8:	0e 94 dc 00 	call	0x1b8	; 0x1b8 <Send_Data>
 1dc:	89 81       	ldd	r24, Y+1	; 0x01
 1de:	81 11       	cpse	r24, r1
 1e0:	02 c0       	rjmp	.+4      	; 0x1e6 <Send_Sensores+0x20>
 1e2:	82 e0       	ldi	r24, 0x02	; 2
 1e4:	01 c0       	rjmp	.+2      	; 0x1e8 <Send_Sensores+0x22>
 1e6:	8c e0       	ldi	r24, 0x0C	; 12
 1e8:	0e 94 dc 00 	call	0x1b8	; 0x1b8 <Send_Data>
 1ec:	8a 81       	ldd	r24, Y+2	; 0x02
 1ee:	81 11       	cpse	r24, r1
 1f0:	02 c0       	rjmp	.+4      	; 0x1f6 <Send_Sensores+0x30>
 1f2:	83 e0       	ldi	r24, 0x03	; 3
 1f4:	01 c0       	rjmp	.+2      	; 0x1f8 <Send_Sensores+0x32>
 1f6:	8d e0       	ldi	r24, 0x0D	; 13
 1f8:	0e 94 dc 00 	call	0x1b8	; 0x1b8 <Send_Data>
 1fc:	8b 81       	ldd	r24, Y+3	; 0x03
 1fe:	81 11       	cpse	r24, r1
 200:	02 c0       	rjmp	.+4      	; 0x206 <Send_Sensores+0x40>
 202:	84 e0       	ldi	r24, 0x04	; 4
 204:	01 c0       	rjmp	.+2      	; 0x208 <Send_Sensores+0x42>
 206:	8e e0       	ldi	r24, 0x0E	; 14
 208:	0e 94 dc 00 	call	0x1b8	; 0x1b8 <Send_Data>
 20c:	8c 81       	ldd	r24, Y+4	; 0x04
 20e:	81 11       	cpse	r24, r1
 210:	02 c0       	rjmp	.+4      	; 0x216 <Send_Sensores+0x50>
 212:	85 e0       	ldi	r24, 0x05	; 5
 214:	01 c0       	rjmp	.+2      	; 0x218 <Send_Sensores+0x52>
 216:	8f e0       	ldi	r24, 0x0F	; 15
 218:	df 91       	pop	r29
 21a:	cf 91       	pop	r28
 21c:	0c 94 dc 00 	jmp	0x1b8	; 0x1b8 <Send_Data>

00000220 <Init>:
 220:	e1 eb       	ldi	r30, 0xB1	; 177
 222:	f0 e0       	ldi	r31, 0x00	; 0
 224:	10 82       	st	Z, r1
 226:	87 b3       	in	r24, 0x17	; 23
 228:	87 60       	ori	r24, 0x07	; 7
 22a:	87 bb       	out	0x17, r24	; 23
 22c:	83 ea       	ldi	r24, 0xA3	; 163
 22e:	80 93 b0 00 	sts	0x00B0, r24
 232:	80 81       	ld	r24, Z
 234:	88 60       	ori	r24, 0x08	; 8
 236:	80 83       	st	Z, r24
 238:	10 92 b2 00 	sts	0x00B2, r1
 23c:	8f e7       	ldi	r24, 0x7F	; 127
 23e:	80 93 b3 00 	sts	0x00B3, r24
 242:	80 93 b4 00 	sts	0x00B4, r24
 246:	10 92 70 00 	sts	0x0070, r1
 24a:	86 e0       	ldi	r24, 0x06	; 6
 24c:	80 83       	st	Z, r24
 24e:	87 b1       	in	r24, 0x07	; 7
 250:	81 7c       	andi	r24, 0xC1	; 193
 252:	87 b9       	out	0x07, r24	; 7
 254:	88 b1       	in	r24, 0x08	; 8
 256:	8e 63       	ori	r24, 0x3E	; 62
 258:	88 b9       	out	0x08, r24	; 8
 25a:	88 e0       	ldi	r24, 0x08	; 8
 25c:	84 b9       	out	0x04, r24	; 4
 25e:	8a b9       	out	0x0a, r24	; 10
 260:	85 b9       	out	0x05, r24	; 5
 262:	8b b9       	out	0x0b, r24	; 11
 264:	08 95       	ret

00000266 <Sensores>:
 266:	35 9b       	sbis	0x06, 5	; 6
 268:	04 c0       	rjmp	.+8      	; 0x272 <Sensores+0xc>
 26a:	81 e0       	ldi	r24, 0x01	; 1
 26c:	80 93 12 01 	sts	0x0112, r24
 270:	02 c0       	rjmp	.+4      	; 0x276 <Sensores+0x10>
 272:	10 92 12 01 	sts	0x0112, r1
 276:	34 9b       	sbis	0x06, 4	; 6
 278:	04 c0       	rjmp	.+8      	; 0x282 <Sensores+0x1c>
 27a:	81 e0       	ldi	r24, 0x01	; 1
 27c:	80 93 11 01 	sts	0x0111, r24
 280:	02 c0       	rjmp	.+4      	; 0x286 <Sensores+0x20>
 282:	10 92 11 01 	sts	0x0111, r1
 286:	33 9b       	sbis	0x06, 3	; 6
 288:	04 c0       	rjmp	.+8      	; 0x292 <Sensores+0x2c>
 28a:	81 e0       	ldi	r24, 0x01	; 1
 28c:	80 93 10 01 	sts	0x0110, r24
 290:	02 c0       	rjmp	.+4      	; 0x296 <Sensores+0x30>
 292:	10 92 10 01 	sts	0x0110, r1
 296:	32 9b       	sbis	0x06, 2	; 6
 298:	04 c0       	rjmp	.+8      	; 0x2a2 <Sensores+0x3c>
 29a:	81 e0       	ldi	r24, 0x01	; 1
 29c:	80 93 0f 01 	sts	0x010F, r24
 2a0:	02 c0       	rjmp	.+4      	; 0x2a6 <Sensores+0x40>
 2a2:	10 92 0f 01 	sts	0x010F, r1
 2a6:	31 9b       	sbis	0x06, 1	; 6
 2a8:	04 c0       	rjmp	.+8      	; 0x2b2 <Sensores+0x4c>
 2aa:	81 e0       	ldi	r24, 0x01	; 1
 2ac:	80 93 0e 01 	sts	0x010E, r24
 2b0:	08 95       	ret
 2b2:	10 92 0e 01 	sts	0x010E, r1
 2b6:	08 95       	ret

000002b8 <Calculo>:
 2b8:	80 91 10 01 	lds	r24, 0x0110
 2bc:	81 11       	cpse	r24, r1
 2be:	04 c0       	rjmp	.+8      	; 0x2c8 <Calculo+0x10>
 2c0:	88 ec       	ldi	r24, 0xC8	; 200
 2c2:	80 93 b3 00 	sts	0x00B3, r24
 2c6:	20 c0       	rjmp	.+64     	; 0x308 <Calculo+0x50>
 2c8:	80 91 0f 01 	lds	r24, 0x010F
 2cc:	81 11       	cpse	r24, r1
 2ce:	02 c0       	rjmp	.+4      	; 0x2d4 <Calculo+0x1c>
 2d0:	86 e9       	ldi	r24, 0x96	; 150
 2d2:	05 c0       	rjmp	.+10     	; 0x2de <Calculo+0x26>
 2d4:	80 91 0e 01 	lds	r24, 0x010E
 2d8:	81 11       	cpse	r24, r1
 2da:	05 c0       	rjmp	.+10     	; 0x2e6 <Calculo+0x2e>
 2dc:	82 e3       	ldi	r24, 0x32	; 50
 2de:	80 93 b3 00 	sts	0x00B3, r24
 2e2:	88 ec       	ldi	r24, 0xC8	; 200
 2e4:	11 c0       	rjmp	.+34     	; 0x308 <Calculo+0x50>
 2e6:	80 91 11 01 	lds	r24, 0x0111
 2ea:	81 11       	cpse	r24, r1
 2ec:	05 c0       	rjmp	.+10     	; 0x2f8 <Calculo+0x40>
 2ee:	88 ec       	ldi	r24, 0xC8	; 200
 2f0:	80 93 b3 00 	sts	0x00B3, r24
 2f4:	86 e9       	ldi	r24, 0x96	; 150
 2f6:	08 c0       	rjmp	.+16     	; 0x308 <Calculo+0x50>
 2f8:	80 91 12 01 	lds	r24, 0x0112
 2fc:	81 11       	cpse	r24, r1
 2fe:	07 c0       	rjmp	.+14     	; 0x30e <Calculo+0x56>
 300:	88 ec       	ldi	r24, 0xC8	; 200
 302:	80 93 b3 00 	sts	0x00B3, r24
 306:	82 e3       	ldi	r24, 0x32	; 50
 308:	80 93 b4 00 	sts	0x00B4, r24
 30c:	08 95       	ret
 30e:	10 92 b3 00 	sts	0x00B3, r1
 312:	10 92 b4 00 	sts	0x00B4, r1
 316:	08 95       	ret

00000318 <main>:
 318:	0e 94 10 01 	call	0x220	; 0x220 <Init>
 31c:	0e 94 cd 00 	call	0x19a	; 0x19a <init_usart>
 320:	0e 94 33 01 	call	0x266	; 0x266 <Sensores>
 324:	80 91 13 01 	lds	r24, 0x0113
 328:	88 23       	and	r24, r24
 32a:	19 f0       	breq	.+6      	; 0x332 <main+0x1a>
 32c:	0e 94 5c 01 	call	0x2b8	; 0x2b8 <Calculo>
 330:	04 c0       	rjmp	.+8      	; 0x33a <main+0x22>
 332:	10 92 b3 00 	sts	0x00B3, r1
 336:	10 92 b4 00 	sts	0x00B4, r1
 33a:	8e e0       	ldi	r24, 0x0E	; 14
 33c:	91 e0       	ldi	r25, 0x01	; 1
 33e:	0e 94 e3 00 	call	0x1c6	; 0x1c6 <Send_Sensores>
 342:	ee cf       	rjmp	.-36     	; 0x320 <main+0x8>

00000344 <Motores>:
 344:	83 30       	cpi	r24, 0x03	; 3
 346:	91 05       	cpc	r25, r1
 348:	a1 f0       	breq	.+40     	; 0x372 <Motores+0x2e>
 34a:	34 f4       	brge	.+12     	; 0x358 <Motores+0x14>
 34c:	81 30       	cpi	r24, 0x01	; 1
 34e:	91 05       	cpc	r25, r1
 350:	51 f0       	breq	.+20     	; 0x366 <Motores+0x22>
 352:	02 97       	sbiw	r24, 0x02	; 2
 354:	61 f0       	breq	.+24     	; 0x36e <Motores+0x2a>
 356:	08 95       	ret
 358:	85 30       	cpi	r24, 0x05	; 5
 35a:	91 05       	cpc	r25, r1
 35c:	a1 f0       	breq	.+40     	; 0x386 <Motores+0x42>
 35e:	74 f0       	brlt	.+28     	; 0x37c <Motores+0x38>
 360:	06 97       	sbiw	r24, 0x06	; 6
 362:	c1 f0       	breq	.+48     	; 0x394 <Motores+0x50>
 364:	08 95       	ret
 366:	88 ec       	ldi	r24, 0xC8	; 200
 368:	80 93 b3 00 	sts	0x00B3, r24
 36c:	10 c0       	rjmp	.+32     	; 0x38e <Motores+0x4a>
 36e:	82 e3       	ldi	r24, 0x32	; 50
 370:	01 c0       	rjmp	.+2      	; 0x374 <Motores+0x30>
 372:	86 e9       	ldi	r24, 0x96	; 150
 374:	80 93 b3 00 	sts	0x00B3, r24
 378:	88 ec       	ldi	r24, 0xC8	; 200
 37a:	09 c0       	rjmp	.+18     	; 0x38e <Motores+0x4a>
 37c:	88 ec       	ldi	r24, 0xC8	; 200
 37e:	80 93 b3 00 	sts	0x00B3, r24
 382:	82 e3       	ldi	r24, 0x32	; 50
 384:	04 c0       	rjmp	.+8      	; 0x38e <Motores+0x4a>
 386:	88 ec       	ldi	r24, 0xC8	; 200
 388:	80 93 b3 00 	sts	0x00B3, r24
 38c:	86 e9       	ldi	r24, 0x96	; 150
 38e:	80 93 b4 00 	sts	0x00B4, r24
 392:	08 95       	ret
 394:	10 92 b3 00 	sts	0x00B3, r1
 398:	10 92 b4 00 	sts	0x00B4, r1
 39c:	08 95       	ret

0000039e <usart_putchar>:
 39e:	90 91 c0 00 	lds	r25, 0x00C0
 3a2:	95 ff       	sbrs	r25, 5
 3a4:	fc cf       	rjmp	.-8      	; 0x39e <usart_putchar>
 3a6:	80 93 c6 00 	sts	0x00C6, r24
 3aa:	80 e0       	ldi	r24, 0x00	; 0
 3ac:	90 e0       	ldi	r25, 0x00	; 0
 3ae:	08 95       	ret

000003b0 <usart_init>:
 3b0:	80 e1       	ldi	r24, 0x10	; 16
 3b2:	90 e0       	ldi	r25, 0x00	; 0
 3b4:	90 93 c5 00 	sts	0x00C5, r25
 3b8:	80 93 c4 00 	sts	0x00C4, r24
 3bc:	88 e1       	ldi	r24, 0x18	; 24
 3be:	80 93 c1 00 	sts	0x00C1, r24
 3c2:	8e e0       	ldi	r24, 0x0E	; 14
 3c4:	80 93 c2 00 	sts	0x00C2, r24
 3c8:	08 95       	ret

000003ca <printf_init>:
 3ca:	0e 94 d8 01 	call	0x3b0	; 0x3b0 <usart_init>
 3ce:	80 e0       	ldi	r24, 0x00	; 0
 3d0:	91 e0       	ldi	r25, 0x01	; 1
 3d2:	90 93 17 01 	sts	0x0117, r25
 3d6:	80 93 16 01 	sts	0x0116, r24
 3da:	08 95       	ret

000003dc <_exit>:
 3dc:	f8 94       	cli

000003de <__stop_program>:
 3de:	ff cf       	rjmp	.-2      	; 0x3de <__stop_program>
